libfm-qt.so.6:_ZN2Fm10DirListJob10filesFoundERNS_12FileInfoListE
libfm-qt.so.6:_ZN2Fm10DirListJob11qt_metacallEN11QMetaObject4CallEiPPv
libfm-qt.so.6:_ZN2Fm10DirListJob11qt_metacastEPKc
libfm-qt.so.6:_ZN2Fm10DirListJob4execEv
libfm-qt.so.6:_ZN2Fm10DirListJobC1ERKNS_8FilePathENS0_5FlagsERKSt10shared_ptrIKSt3setIjSt4lessIjESaIjEEE
libfm-qt.so.6:_ZN2Fm10DirListJobC2ERKNS_8FilePathENS0_5FlagsERKSt10shared_ptrIKSt3setIjSt4lessIjESaIjEEE
libfm-qt.so.6:_ZN2Fm10FileDialog10freeFolderEv
libfm-qt.so.6:_ZN2Fm10FileDialog10selectFileERK4QUrl
libfm-qt.so.6:_ZN2Fm10FileDialog11onNewFolderEv
libfm-qt.so.6:_ZN2Fm10FileDialog11qt_metacallEN11QMetaObject4CallEiPPv
libfm-qt.so.6:_ZN2Fm10FileDialog11qt_metacastEPKc
libfm-qt.so.6:_ZN2Fm10FileDialog11setFileModeEN11QFileDialog8FileModeE
libfm-qt.so.6:_ZN2Fm10FileDialog11setViewModeENS_10FolderView8ViewModeE
libfm-qt.so.6:_ZN2Fm10FileDialog12fileSelectedERK4QUrl
libfm-qt.so.6:_ZN2Fm10FileDialog12setDirectoryERK4QUrl
libfm-qt.so.6:_ZN2Fm10FileDialog12setLabelTextEN11QFileDialog11DialogLabelERK7QString
libfm-qt.so.6:_ZN2Fm10FileDialog13filesSelectedERK5QListI4QUrlE
libfm-qt.so.6:_ZN2Fm10FileDialog13onFileClickedEiRKSt10shared_ptrIKNS_8FileInfoEE
libfm-qt.so.6:_ZN2Fm10FileDialog13selectedFilesEv
libfm-qt.so.6:_ZN2Fm10FileDialog13setAcceptModeEN11QFileDialog10AcceptModeE
libfm-qt.so.6:_ZN2Fm10FileDialog14currentChangedERK4QUrl
libfm-qt.so.6:_ZN2Fm10FileDialog14filterSelectedERK7QString
libfm-qt.so.6:_ZN2Fm10FileDialog14isSupportedUrlERK4QUrl
libfm-qt.so.6:_ZN2Fm10FileDialog14selectFilePathERKNS_8FilePathE
libfm-qt.so.6:_ZN2Fm10FileDialog14setNameFiltersERK11QStringList
libfm-qt.so.6:_ZN2Fm10FileDialog14setSplitterPosEi
libfm-qt.so.6:_ZN2Fm10FileDialog16FileDialogFilter6updateEv
libfm-qt.so.6:_ZN2Fm10FileDialog16directoryEnteredERK4QUrl
libfm-qt.so.6:_ZN2Fm10FileDialog16selectNameFilterERK7QString
libfm-qt.so.6:_ZN2Fm10FileDialog16setDirectoryPathENS_8FilePathES1_b
libfm-qt.so.6:_ZN2Fm10FileDialog17onViewModeToggledEb
libfm-qt.so.6:_ZN2Fm10FileDialog18onSelectionChangedERK14QItemSelectionS3_
libfm-qt.so.6:_ZN2Fm10FileDialog18setMimeTypeFiltersERK11QStringList
libfm-qt.so.6:_ZN2Fm10FileDialog19onCurrentRowChangedERK11QModelIndexS3_
libfm-qt.so.6:_ZN2Fm10FileDialog19selectFilesOnReloadERKNS_12FileInfoListE
libfm-qt.so.6:_ZN2Fm10FileDialog19setLabelTextControlEN11QFileDialog11DialogLabelERK7QString
libfm-qt.so.6:_ZN2Fm10FileDialog19updateSelectionModeEv
libfm-qt.so.6:_ZN2Fm10FileDialog20selectMimeTypeFilterERK7QString
libfm-qt.so.6:_ZN2Fm10FileDialog20updateSaveButtonTextEb
libfm-qt.so.6:_ZN2Fm10FileDialog21onFileInfoJobFinishedEv
libfm-qt.so.6:_ZN2Fm10FileDialog23selectFilePathWithDelayERKNS_8FilePathE
libfm-qt.so.6:_ZN2Fm10FileDialog23updateAcceptButtonStateEv
libfm-qt.so.6:_ZN2Fm10FileDialog6acceptEv
libfm-qt.so.6:_ZN2Fm10FileDialog6goHomeEv
libfm-qt.so.6:_ZN2Fm10FileDialog6rejectEv
libfm-qt.so.6:_ZN2Fm10FileDialog8doAcceptEv
libfm-qt.so.6:_ZN2Fm10FileDialog9setFilterE6QFlagsIN4QDir6FilterEE
libfm-qt.so.6:_ZN2Fm10FileDialogC1EP7QWidgetNS_8FilePathE
libfm-qt.so.6:_ZN2Fm10FileDialogC2EP7QWidgetNS_8FilePathE
libfm-qt.so.6:_ZN2Fm10FileDialogD0Ev
libfm-qt.so.6:_ZN2Fm10FileDialogD1Ev
libfm-qt.so.6:_ZN2Fm10FileDialogD2Ev
libfm-qt.so.6:_ZN2Fm10FolderMenu11qt_metacallEN11QMetaObject4CallEiPPv
libfm-qt.so.6:_ZN2Fm10FolderMenu11qt_metacastEPKc
libfm-qt.so.6:_ZN2Fm10FolderMenu14createSortMenuEv
libfm-qt.so.6:_ZN2Fm10FolderMenu15addSortMenuItemE7QStringi
libfm-qt.so.6:_ZN2Fm10FolderMenu19addCustomActionItemEP5QMenuSt10shared_ptrIKNS_14FileActionItemEE
libfm-qt.so.6:_ZN2Fm10FolderMenu21onSortActionTriggeredEb
libfm-qt.so.6:_ZN2Fm10FolderMenu22onPasteActionTriggeredEv
libfm-qt.so.6:_ZN2Fm10FolderMenu23onCustomActionTrigerredEv
libfm-qt.so.6:_ZN2Fm10FolderMenu26onSelectAllActionTriggeredEv
libfm-qt.so.6:_ZN2Fm10FolderMenu26onSortOrderActionTriggeredEb
libfm-qt.so.6:_ZN2Fm10FolderMenu27onPropertiesActionTriggeredEv
libfm-qt.so.6:_ZN2Fm10FolderMenu27onShowHiddenActionTriggeredEb
libfm-qt.so.6:_ZN2Fm10FolderMenu28onFolderFirstActionTriggeredEb
libfm-qt.so.6:_ZN2Fm10FolderMenu30onCaseSensitiveActionTriggeredEb
libfm-qt.so.6:_ZN2Fm10FolderMenu32onInvertSelectionActionTriggeredEv
libfm-qt.so.6:_ZN2Fm10FolderMenuC1EPNS_10FolderViewEP7QWidget
libfm-qt.so.6:_ZN2Fm10FolderMenuC2EPNS_10FolderViewEP7QWidget
libfm-qt.so.6:_ZN2Fm10FolderMenuD0Ev
libfm-qt.so.6:_ZN2Fm10FolderMenuD1Ev
libfm-qt.so.6:_ZN2Fm10FolderMenuD2Ev
libfm-qt.so.6:_ZN2Fm10FolderView10selChangedEv
libfm-qt.so.6:_ZN2Fm10FolderView10setMarginsE5QSize
libfm-qt.so.6:_ZN2Fm10FolderView11clickedBackEv
libfm-qt.so.6:_ZN2Fm10FolderView11eventFilterEP7QObjectP6QEvent
libfm-qt.so.6:_ZN2Fm10FolderView11qt_metacallEN11QMetaObject4CallEiPPv
libfm-qt.so.6:_ZN2Fm10FolderView11qt_metacastEPKc
libfm-qt.so.6:_ZN2Fm10FolderView11selectFilesERKNS_12FileInfoListEb
libfm-qt.so.6:_ZN2Fm10FolderView11setIconSizeENS0_8ViewModeE5QSize
libfm-qt.so.6:_ZN2Fm10FolderView11setViewModeENS0_8ViewModeE
libfm-qt.so.6:_ZN2Fm10FolderView11sortChangedEv
libfm-qt.so.6:_ZN2Fm10FolderView13emitClickedAtENS0_9ClickTypeERK6QPoint
libfm-qt.so.6:_ZN2Fm10FolderView13onFileClickedEiRKSt10shared_ptrIKNS_8FileInfoEE
libfm-qt.so.6:_ZN2Fm10FolderView14childDropEventEP10QDropEvent
libfm-qt.so.6:_ZN2Fm10FolderView14clickedForwardEv
libfm-qt.so.6:_ZN2Fm10FolderView14scrollSmoothlyEv
libfm-qt.so.6:_ZN2Fm10FolderView14updateGridSizeEv
libfm-qt.so.6:_ZN2Fm10FolderView15invertSelectionEv
libfm-qt.so.6:_ZN2Fm10FolderView15onClosingEditorEP7QWidgetN21QAbstractItemDelegate11EndEditHintE
libfm-qt.so.6:_ZN2Fm10FolderView15onItemActivatedE11QModelIndex
libfm-qt.so.6:_ZN2Fm10FolderView15prepareFileMenuEPNS_8FileMenuE
libfm-qt.so.6:_ZN2Fm10FolderView15setShadowHiddenEb
libfm-qt.so.6:_ZN2Fm10FolderView16contextMenuEventEP17QContextMenuEvent
libfm-qt.so.6:_ZN2Fm10FolderView17prepareFolderMenuEPNS_10FolderMenuE
libfm-qt.so.6:_ZN2Fm10FolderView18childDragMoveEventEP14QDragMoveEvent
libfm-qt.so.6:_ZN2Fm10FolderView18onSelectionChangedERK14QItemSelectionS3_
libfm-qt.so.6:_ZN2Fm10FolderView19childDragEnterEventEP15QDragEnterEvent
libfm-qt.so.6:_ZN2Fm10FolderView19childDragLeaveEventEP15QDragLeaveEvent
libfm-qt.so.6:_ZN2Fm10FolderView19onSelChangedTimeoutEv
libfm-qt.so.6:_ZN2Fm10FolderView20childMousePressEventEP11QMouseEvent
libfm-qt.so.6:_ZN2Fm10FolderView21onClipboardDataChangeEv
libfm-qt.so.6:_ZN2Fm10FolderView21setAutoSelectionDelayEi
libfm-qt.so.6:_ZN2Fm10FolderView22onAutoSelectionTimeoutEv
libfm-qt.so.6:_ZN2Fm10FolderView5eventEP6QEvent
libfm-qt.so.6:_ZN2Fm10FolderView7clickedEiRKSt10shared_ptrIKNS_8FileInfoEE
libfm-qt.so.6:_ZN2Fm10FolderView8setModelEPNS_16ProxyFolderModelE
libfm-qt.so.6:_ZN2Fm10FolderView9selectAllEv
libfm-qt.so.6:_ZN2Fm10FolderViewC1ENS0_8ViewModeEP7QWidget
libfm-qt.so.6:_ZN2Fm10FolderViewC2ENS0_8ViewModeEP7QWidget
libfm-qt.so.6:_ZN2Fm10FolderViewD0Ev
libfm-qt.so.6:_ZN2Fm10FolderViewD1Ev
libfm-qt.so.6:_ZN2Fm10FolderViewD2Ev
libfm-qt.so.6:_ZN2Fm10FontButton11qt_metacallEN11QMetaObject4CallEiPPv
libfm-qt.so.6:_ZN2Fm10FontButton11qt_metacastEPKc
libfm-qt.so.6:_ZN2Fm10FontButton7changedEv
libfm-qt.so.6:_ZN2Fm10FontButton7setFontE5QFont
libfm-qt.so.6:_ZN2Fm10FontButton9onClickedEv
libfm-qt.so.6:_ZN2Fm10FontButtonC1EP7QWidget
libfm-qt.so.6:_ZN2Fm10FontButtonC2EP7QWidget
libfm-qt.so.6:_ZN2Fm10FontButtonD0Ev
libfm-qt.so.6:_ZN2Fm10FontButtonD1Ev
libfm-qt.so.6:_ZN2Fm10FontButtonD2Ev
libfm-qt.so.6:_ZN2Fm10PlacesView10commitDataEP7QWidget
libfm-qt.so.6:_ZN2Fm10PlacesView11activateRowEiRK11QModelIndex
libfm-qt.so.6:_ZN2Fm10PlacesView11qt_metacallEN11QMetaObject4CallEiPPv
libfm-qt.so.6:_ZN2Fm10PlacesView11qt_metacastEPKc
libfm-qt.so.6:_ZN2Fm10PlacesView12onEmptyTrashEv
libfm-qt.so.6:_ZN2Fm10PlacesView12onOpenNewTabEv
libfm-qt.so.6:_ZN2Fm10PlacesView13dragMoveEventEP14QDragMoveEvent
libfm-qt.so.6:_ZN2Fm10PlacesView13hiddenItemSetERK7QStringb
libfm-qt.so.6:_ZN2Fm10PlacesView13onEjectVolumeEv
libfm-qt.so.6:_ZN2Fm10PlacesView13onMountVolumeEv
libfm-qt.so.6:_ZN2Fm10PlacesView14chdirRequestedEiRKNS_8FilePathE
libfm-qt.so.6:_ZN2Fm10PlacesView14onUnmountMountEv
libfm-qt.so.6:_ZN2Fm10PlacesView14setCurrentPathENS_8FilePathE
libfm-qt.so.6:_ZN2Fm10PlacesView15onOpenNewWindowEv
libfm-qt.so.6:_ZN2Fm10PlacesView15onUnmountVolumeEv
libfm-qt.so.6:_ZN2Fm10PlacesView15spanFirstColumnEv
libfm-qt.so.6:_ZN2Fm10PlacesView16contextMenuEventEP17QContextMenuEvent
libfm-qt.so.6:_ZN2Fm10PlacesView16onDeleteBookmarkEv
libfm-qt.so.6:_ZN2Fm10PlacesView16onMoveBookmarkUpEv
libfm-qt.so.6:_ZN2Fm10PlacesView16onRenameBookmarkEv
libfm-qt.so.6:_ZN2Fm10PlacesView17onIconSizeChangedERK5QSize
libfm-qt.so.6:_ZN2Fm10PlacesView18onMoveBookmarkDownEv
libfm-qt.so.6:_ZN2Fm10PlacesView18restoreHiddenItemsERK4QSetI7QStringE
libfm-qt.so.6:_ZN2Fm10PlacesView20onEjectButtonClickedEPNS_15PlacesModelItemE
libfm-qt.so.6:_ZN2Fm10PlacesView7showAllEb
libfm-qt.so.6:_ZN2Fm10PlacesView9dropEventEP10QDropEvent
libfm-qt.so.6:_ZN2Fm10PlacesView9onClickedERK11QModelIndex
libfm-qt.so.6:_ZN2Fm10PlacesView9onPressedERK11QModelIndex
libfm-qt.so.6:_ZN2Fm10PlacesViewC1EP7QWidget
libfm-qt.so.6:_ZN2Fm10PlacesViewC2EP7QWidget
libfm-qt.so.6:_ZN2Fm10PlacesViewD0Ev
libfm-qt.so.6:_ZN2Fm10PlacesViewD1Ev
libfm-qt.so.6:_ZN2Fm10PlacesViewD2Ev
libfm-qt.so.6:_ZN2Fm10UntrashJob4execEv
libfm-qt.so.6:_ZN2Fm10UntrashJobC1ESt6vectorINS_8FilePathESaIS2_EE
libfm-qt.so.6:_ZN2Fm10UntrashJobC2ESt6vectorINS_8FilePathESaIS2_EE
libfm-qt.so.6:_ZN2Fm10renameFileESt10shared_ptrIKNS_8FileInfoEEP7QWidget
libfm-qt.so.6:_ZN2Fm11AppMenuView11qt_metacallEN11QMetaObject4CallEiPPv
libfm-qt.so.6:_ZN2Fm11AppMenuView11qt_metacastEPKc
libfm-qt.so.6:_ZN2Fm11AppMenuView12addMenuItemsEP13QStandardItemP13_MenuCacheDir
libfm-qt.so.6:_ZN2Fm11AppMenuView16selectionChangedERK14QItemSelectionS3_
libfm-qt.so.6:_ZN2Fm11AppMenuView17onMenuCacheReloadEP10_MenuCache
libfm-qt.so.6:_ZN2Fm11AppMenuViewC1EP7QWidget
libfm-qt.so.6:_ZN2Fm11AppMenuViewC2EP7QWidget
libfm-qt.so.6:_ZN2Fm11AppMenuViewD0Ev
libfm-qt.so.6:_ZN2Fm11AppMenuViewD1Ev
libfm-qt.so.6:_ZN2Fm11AppMenuViewD2Ev
libfm-qt.so.6:_ZN2Fm11ColorButton11qt_metacallEN11QMetaObject4CallEiPPv
libfm-qt.so.6:_ZN2Fm11ColorButton11qt_metacastEPKc
libfm-qt.so.6:_ZN2Fm11ColorButton7changedEv
libfm-qt.so.6:_ZN2Fm11ColorButton8setColorERK6QColor
libfm-qt.so.6:_ZN2Fm11ColorButton9onClickedEv
libfm-qt.so.6:_ZN2Fm11ColorButtonC1EP7QWidget
libfm-qt.so.6:_ZN2Fm11ColorButtonC2EP7QWidget
libfm-qt.so.6:_ZN2Fm11ColorButtonD0Ev
libfm-qt.so.6:_ZN2Fm11ColorButtonD1Ev
libfm-qt.so.6:_ZN2Fm11ColorButtonD2Ev
libfm-qt.so.6:_ZN2Fm11DirTreeView10onExpandedERK11QModelIndex
libfm-qt.so.6:_ZN2Fm11DirTreeView11onCollapsedERK11QModelIndex
libfm-qt.so.6:_ZN2Fm11DirTreeView11onNewFolderEv
libfm-qt.so.6:_ZN2Fm11DirTreeView11onNewWindowEv
libfm-qt.so.6:_ZN2Fm11DirTreeView11onRowLoadedERK11QModelIndex
libfm-qt.so.6:_ZN2Fm11DirTreeView11qt_metacallEN11QMetaObject4CallEiPPv
libfm-qt.so.6:_ZN2Fm11DirTreeView11qt_metacastEPKc
libfm-qt.so.6:_ZN2Fm11DirTreeView11rowsRemovedERK11QModelIndexii
libfm-qt.so.6:_ZN2Fm11DirTreeView14chdirRequestedEiRKNS_8FilePathE
libfm-qt.so.6:_ZN2Fm11DirTreeView14setCurrentPathENS_8FilePathE
libfm-qt.so.6:_ZN2Fm11DirTreeView15mousePressEventEP11QMouseEvent
libfm-qt.so.6:_ZN2Fm11DirTreeView15prepareFileMenuEPNS_8FileMenuE
libfm-qt.so.6:_ZN2Fm11DirTreeView16onOpenInTerminalEv
libfm-qt.so.6:_ZN2Fm11DirTreeView17doQueuedDeletionsEv
libfm-qt.so.6:_ZN2Fm11DirTreeView17expandPendingPathEv
libfm-qt.so.6:_ZN2Fm11DirTreeView18cancelPendingChdirEv
libfm-qt.so.6:_ZN2Fm11DirTreeView18onSelectionChangedERK14QItemSelectionS3_
libfm-qt.so.6:_ZN2Fm11DirTreeView20rowsAboutToBeRemovedERK11QModelIndexii
libfm-qt.so.6:_ZN2Fm11DirTreeView24createNewFolderRequestedERKNS_8FilePathE
libfm-qt.so.6:_ZN2Fm11DirTreeView27openFolderInNewTabRequestedERKNS_8FilePathE
libfm-qt.so.6:_ZN2Fm11DirTreeView28onCustomContextMenuRequestedERK6QPoint
libfm-qt.so.6:_ZN2Fm11DirTreeView29openFolderInTerminalRequestedERKNS_8FilePathE
libfm-qt.so.6:_ZN2Fm11DirTreeView30openFolderInNewWindowRequestedERKNS_8FilePathE
libfm-qt.so.6:_ZN2Fm11DirTreeView6onOpenEv
libfm-qt.so.6:_ZN2Fm11DirTreeView8onNewTabEv
libfm-qt.so.6:_ZN2Fm11DirTreeView8setModelEP18QAbstractItemModel
libfm-qt.so.6:_ZN2Fm11DirTreeViewC1EP7QWidget
libfm-qt.so.6:_ZN2Fm11DirTreeViewC2EP7QWidget
libfm-qt.so.6:_ZN2Fm11DirTreeViewD0Ev
libfm-qt.so.6:_ZN2Fm11DirTreeViewD1Ev
libfm-qt.so.6:_ZN2Fm11DirTreeViewD2Ev
libfm-qt.so.6:_ZN2Fm11FileInfoJob11qt_metacallEN11QMetaObject4CallEiPPv
libfm-qt.so.6:_ZN2Fm11FileInfoJob11qt_metacastEPKc
libfm-qt.so.6:_ZN2Fm11FileInfoJob4execEv
libfm-qt.so.6:_ZN2Fm11FileInfoJob7gotInfoERKNS_8FilePathERSt10shared_ptrIKNS_8FileInfoEE
libfm-qt.so.6:_ZN2Fm11FileInfoJobC1ESt6vectorINS_8FilePathESaIS2_EERKSt10shared_ptrIKSt3setIjSt4lessIjESaIjEEE
libfm-qt.so.6:_ZN2Fm11FileInfoJobC2ESt6vectorINS_8FilePathESaIS2_EERKSt10shared_ptrIKSt3setIjSt4lessIjESaIjEEE
libfm-qt.so.6:_ZN2Fm11FileLinkJobC1Ev
libfm-qt.so.6:_ZN2Fm11FileLinkJobC2Ev
libfm-qt.so.6:_ZN2Fm11FileMonitor11qt_metacallEN11QMetaObject4CallEiPPv
libfm-qt.so.6:_ZN2Fm11FileMonitor11qt_metacastEPKc
libfm-qt.so.6:_ZN2Fm11FileMonitorC1Ev
libfm-qt.so.6:_ZN2Fm11FileMonitorC2Ev
libfm-qt.so.6:_ZN2Fm11FolderModel10filesAddedENS_12FileInfoListE
libfm-qt.so.6:_ZN2Fm11FolderModel11insertFilesEiRKNS_12FileInfoListE
libfm-qt.so.6:_ZN2Fm11FolderModel11qt_metacallEN11QMetaObject4CallEiPPv
libfm-qt.so.6:_ZN2Fm11FolderModel11qt_metacastEPKc
libfm-qt.so.6:_ZN2Fm11FolderModel11setCutFilesERK14QItemSelection
libfm-qt.so.6:_ZN2Fm11FolderModel12dropMimeDataEPK9QMimeDataN2Qt10DropActionEiiRK11QModelIndex
libfm-qt.so.6:_ZN2Fm11FolderModel12onFilesAddedERKNS_12FileInfoListE
libfm-qt.so.6:_ZN2Fm11FolderModel14findItemByNameEPKcPi
libfm-qt.so.6:_ZN2Fm11FolderModel14findItemByPathERKNS_8FilePathEPi
libfm-qt.so.6:_ZN2Fm11FolderModel14onFilesChangedERSt6vectorISt4pairISt10shared_ptrIKNS_8FileInfoEES6_ESaIS7_EE
libfm-qt.so.6:_ZN2Fm11FolderModel14onFilesRemovedERKNS_12FileInfoListE
libfm-qt.so.6:_ZN2Fm11FolderModel14onStartLoadingEv
libfm-qt.so.6:_ZN2Fm11FolderModel15cacheThumbnailsEi
libfm-qt.so.6:_ZN2Fm11FolderModel15fileSizeChangedERK11QModelIndex
libfm-qt.so.6:_ZN2Fm11FolderModel15onFinishLoadingEv
libfm-qt.so.6:_ZN2Fm11FolderModel15thumbnailLoadedERK11QModelIndexi
libfm-qt.so.6:_ZN2Fm11FolderModel17onThumbnailLoadedERKSt10shared_ptrIKNS_8FileInfoEEiRK6QImage
libfm-qt.so.6:_ZN2Fm11FolderModel17releaseThumbnailsEi
libfm-qt.so.6:_ZN2Fm11FolderModel18findItemByFileInfoEPKNS_8FileInfoEPi
libfm-qt.so.6:_ZN2Fm11FolderModel18queueLoadThumbnailERKSt10shared_ptrIKNS_8FileInfoEEi
libfm-qt.so.6:_ZN2Fm11FolderModel18thumbnailFromIndexERK11QModelIndexi
libfm-qt.so.6:_ZN2Fm11FolderModel21loadPendingThumbnailsEv
libfm-qt.so.6:_ZN2Fm11FolderModel22onThumbnailJobFinishedEv
libfm-qt.so.6:_ZN2Fm11FolderModel9removeAllEv
libfm-qt.so.6:_ZN2Fm11FolderModel9setFolderERKSt10shared_ptrINS_6FolderEE
libfm-qt.so.6:_ZN2Fm11FolderModelC1Ev
libfm-qt.so.6:_ZN2Fm11FolderModelC2Ev
libfm-qt.so.6:_ZN2Fm11FolderModelD0Ev
libfm-qt.so.6:_ZN2Fm11FolderModelD1Ev
libfm-qt.so.6:_ZN2Fm11FolderModelD2Ev
libfm-qt.so.6:_ZN2Fm11PlacesModel11qt_metacallEN11QMetaObject4CallEiPPv
libfm-qt.so.6:_ZN2Fm11PlacesModel11qt_metacastEPKc
libfm-qt.so.6:_ZN2Fm11PlacesModel11updateTrashEv
libfm-qt.so.6:_ZN2Fm11PlacesModel12dropMimeDataEPK9QMimeDataN2Qt10DropActionEiiRK11QModelIndex
libfm-qt.so.6:_ZN2Fm11PlacesModel12itemFromPathEP13QStandardItemRKNS_8FilePathE
libfm-qt.so.6:_ZN2Fm11PlacesModel12itemFromPathERKNS_8FilePathE
libfm-qt.so.6:_ZN2Fm11PlacesModel12onMountAddedEP15_GVolumeMonitorP7_GMountPS0_
libfm-qt.so.6:_ZN2Fm11PlacesModel12setShowTrashEb
libfm-qt.so.6:_ZN2Fm11PlacesModel13itemFromMountEP7_GMount
libfm-qt.so.6:_ZN2Fm11PlacesModel13loadBookmarksEv
libfm-qt.so.6:_ZN2Fm11PlacesModel13onVolumeAddedEP15_GVolumeMonitorP8_GVolumePS0_
libfm-qt.so.6:_ZN2Fm11PlacesModel14globalInstanceEv
libfm-qt.so.6:_ZN2Fm11PlacesModel14itemFromVolumeEP8_GVolume
libfm-qt.so.6:_ZN2Fm11PlacesModel14onMountChangedEP15_GVolumeMonitorP7_GMountPS0_
libfm-qt.so.6:_ZN2Fm11PlacesModel14onMountRemovedEP15_GVolumeMonitorP7_GMountPS0_
libfm-qt.so.6:_ZN2Fm11PlacesModel14onTrashChangedEP13_GFileMonitorP6_GFileS4_17GFileMonitorEventPS0_
libfm-qt.so.6:_ZN2Fm11PlacesModel14setShowDesktopEb
libfm-qt.so.6:_ZN2Fm11PlacesModel15createTrashItemEv
libfm-qt.so.6:_ZN2Fm11PlacesModel15onVolumeChangedEP15_GVolumeMonitorP8_GVolumePS0_
libfm-qt.so.6:_ZN2Fm11PlacesModel15onVolumeRemovedEP15_GVolumeMonitorP8_GVolumePS0_
libfm-qt.so.6:_ZN2Fm11PlacesModel16itemFromBookmarkESt10shared_ptrIKNS_12BookmarkItemEE
libfm-qt.so.6:_ZN2Fm11PlacesModel18onBookmarksChangedEv
libfm-qt.so.6:_ZN2Fm11PlacesModel19setShowApplicationsEb
libfm-qt.so.6:_ZN2Fm11PlacesModelC1EP7QObject
libfm-qt.so.6:_ZN2Fm11PlacesModelC2EP7QObject
libfm-qt.so.6:_ZN2Fm11PlacesModelD0Ev
libfm-qt.so.6:_ZN2Fm11PlacesModelD1Ev
libfm-qt.so.6:_ZN2Fm11PlacesModelD2Ev
libfm-qt.so.6:_ZN2Fm11Thumbnailer7loadAllEv
libfm-qt.so.6:_ZN2Fm11ThumbnailerC1EPKcP9_GKeyFile
libfm-qt.so.6:_ZN2Fm11ThumbnailerC2EPKcP9_GKeyFile
libfm-qt.so.6:_ZN2Fm11gidFromNameE7QString
libfm-qt.so.6:_ZN2Fm11uidFromNameE7QString
libfm-qt.so.6:_ZN2Fm12BookmarkItemC1ERKNS_8FilePathE7QString
libfm-qt.so.6:_ZN2Fm12BookmarkItemC2ERKNS_8FilePathE7QString
libfm-qt.so.6:_ZN2Fm12DirTreeModel11qt_metacallEN11QMetaObject4CallEiPPv
libfm-qt.so.6:_ZN2Fm12DirTreeModel11qt_metacastEPKc
libfm-qt.so.6:_ZN2Fm12DirTreeModel13setShowHiddenEb
libfm-qt.so.6:_ZN2Fm12DirTreeModel21onFileInfoJobFinishedEv
libfm-qt.so.6:_ZN2Fm12DirTreeModel4iconERK11QModelIndex
libfm-qt.so.6:_ZN2Fm12DirTreeModel7addRootESt10shared_ptrIKNS_8FileInfoEE
libfm-qt.so.6:_ZN2Fm12DirTreeModel7loadRowERK11QModelIndex
libfm-qt.so.6:_ZN2Fm12DirTreeModel8addRootsESt6vectorINS_8FilePathESaIS2_EE
libfm-qt.so.6:_ZN2Fm12DirTreeModel8dispNameERK11QModelIndex
libfm-qt.so.6:_ZN2Fm12DirTreeModel8fileInfoERK11QModelIndex
libfm-qt.so.6:_ZN2Fm12DirTreeModel8filePathERK11QModelIndex
libfm-qt.so.6:_ZN2Fm12DirTreeModel8isLoadedERK11QModelIndex
libfm-qt.so.6:_ZN2Fm12DirTreeModel9rowLoadedERK11QModelIndex
libfm-qt.so.6:_ZN2Fm12DirTreeModel9unloadRowERK11QModelIndex
libfm-qt.so.6:_ZN2Fm12DirTreeModelC1EP7QObject
libfm-qt.so.6:_ZN2Fm12DirTreeModelC2EP7QObject
libfm-qt.so.6:_ZN2Fm12DirTreeModelD0Ev
libfm-qt.so.6:_ZN2Fm12DirTreeModelD1Ev
libfm-qt.so.6:_ZN2Fm12DirTreeModelD2Ev
libfm-qt.so.6:_ZN2Fm12FileLauncher10openFolderEP18_GAppLaunchContextRKNS_12FileInfoListERNS_9GErrorPtrE
libfm-qt.so.6:_ZN2Fm12FileLauncher11askExecFileERKSt10shared_ptrIKNS_8FileInfoEE
libfm-qt.so.6:_ZN2Fm12FileLauncher11launchFilesEP7QWidgetRKNS_12FileInfoListE
libfm-qt.so.6:_ZN2Fm12FileLauncher11launchPathsEP7QWidgetRKSt6vectorINS_8FilePathESaIS4_EE
libfm-qt.so.6:_ZN2Fm12FileLauncher3askEPKcPKPci
libfm-qt.so.6:_ZN2Fm12FileLauncher9chooseAppERKNS_12FileInfoListEPKcRNS_9GErrorPtrE
libfm-qt.so.6:_ZN2Fm12FileLauncher9showErrorEP18_GAppLaunchContextRKNS_9GErrorPtrERKNS_8FilePathERKSt10shared_ptrIKNS_8FileInfoEE
libfm-qt.so.6:_ZN2Fm12FileLauncherC1Ev
libfm-qt.so.6:_ZN2Fm12FileLauncherC2Ev
libfm-qt.so.6:_ZN2Fm12FileLauncherD0Ev
libfm-qt.so.6:_ZN2Fm12FileLauncherD1Ev
libfm-qt.so.6:_ZN2Fm12FileLauncherD2Ev
libfm-qt.so.6:_ZN2Fm12FolderConfig10getBooleanEPKcPb
libfm-qt.so.6:_ZN2Fm12FolderConfig10getIntegerEPKcPi
libfm-qt.so.6:_ZN2Fm12FolderConfig10setBooleanEPKcb
libfm-qt.so.6:_ZN2Fm12FolderConfig10setIntegerEPKci
libfm-qt.so.6:_ZN2Fm12FolderConfig13getStringListEPKcPm
libfm-qt.so.6:_ZN2Fm12FolderConfig13setStringListEPKcPKS2_m
libfm-qt.so.6:_ZN2Fm12FolderConfig4initEPKc
libfm-qt.so.6:_ZN2Fm12FolderConfig4openERKNS_8FilePathE
libfm-qt.so.6:_ZN2Fm12FolderConfig5closeERNS_9GErrorPtrE
libfm-qt.so.6:_ZN2Fm12FolderConfig5purgeEv
libfm-qt.so.6:_ZN2Fm12FolderConfig7isEmptyEv
libfm-qt.so.6:_ZN2Fm12FolderConfig8finalizeEv
libfm-qt.so.6:_ZN2Fm12FolderConfig9getDoubleEPKcPd
libfm-qt.so.6:_ZN2Fm12FolderConfig9getStringEPKc
libfm-qt.so.6:_ZN2Fm12FolderConfig9getUint64EPKcPm
libfm-qt.so.6:_ZN2Fm12FolderConfig9removeKeyEPKc
libfm-qt.so.6:_ZN2Fm12FolderConfig9saveCacheEv
libfm-qt.so.6:_ZN2Fm12FolderConfig9setDoubleEPKcd
libfm-qt.so.6:_ZN2Fm12FolderConfig9setStringEPKcS2_
libfm-qt.so.6:_ZN2Fm12FolderConfig9setUint64EPKcm
libfm-qt.so.6:_ZN2Fm12FolderConfigC1ERKNS_8FilePathE
libfm-qt.so.6:_ZN2Fm12FolderConfigC1Ev
libfm-qt.so.6:_ZN2Fm12FolderConfigC2ERKNS_8FilePathE
libfm-qt.so.6:_ZN2Fm12FolderConfigC2Ev
libfm-qt.so.6:_ZN2Fm12FolderConfigD1Ev
libfm-qt.so.6:_ZN2Fm12FolderConfigD2Ev
libfm-qt.so.6:_ZN2Fm12RenameDialog11qt_metacallEN11QMetaObject4CallEiPPv
libfm-qt.so.6:_ZN2Fm12RenameDialog11qt_metacastEPKc
libfm-qt.so.6:_ZN2Fm12RenameDialog15onIgnoreClickedEv
libfm-qt.so.6:_ZN2Fm12RenameDialog15onRenameClickedEv
libfm-qt.so.6:_ZN2Fm12RenameDialog17onFileNameChangedE7QString
libfm-qt.so.6:_ZN2Fm12RenameDialog6acceptEv
libfm-qt.so.6:_ZN2Fm12RenameDialog6rejectEv
libfm-qt.so.6:_ZN2Fm12RenameDialogC1ERKNS_8FileInfoES3_P7QWidget6QFlagsIN2Qt10WindowTypeEE
libfm-qt.so.6:_ZN2Fm12RenameDialogC2ERKNS_8FileInfoES3_P7QWidget6QFlagsIN2Qt10WindowTypeEE
libfm-qt.so.6:_ZN2Fm12RenameDialogD0Ev
libfm-qt.so.6:_ZN2Fm12RenameDialogD1Ev
libfm-qt.so.6:_ZN2Fm12RenameDialogD2Ev
libfm-qt.so.6:_ZN2Fm12TemplateItemC1ESt10shared_ptrIKNS_8FileInfoEE
libfm-qt.so.6:_ZN2Fm12TemplateItemC2ESt10shared_ptrIKNS_8FileInfoEE
libfm-qt.so.6:_ZN2Fm12ThumbnailJob10threadPoolEv
libfm-qt.so.6:_ZN2Fm12ThumbnailJob11loadForFileERKSt10shared_ptrIKNS_8FileInfoEE
libfm-qt.so.6:_ZN2Fm12ThumbnailJob11qt_metacallEN11QMetaObject4CallEiPPv
libfm-qt.so.6:_ZN2Fm12ThumbnailJob11qt_metacastEPKc
libfm-qt.so.6:_ZN2Fm12ThumbnailJob12readJpegExifEP13_GInputStreamR6QImageRi
libfm-qt.so.6:_ZN2Fm12ThumbnailJob15thumbnailLoadedERKSt10shared_ptrIKNS_8FileInfoEEi6QImage
libfm-qt.so.6:_ZN2Fm12ThumbnailJob17generateThumbnailERKSt10shared_ptrIKNS_8FileInfoEERKNS_8FilePathEPKcRK7QString
libfm-qt.so.6:_ZN2Fm12ThumbnailJob17setLocalFilesOnlyEb
libfm-qt.so.6:_ZN2Fm12ThumbnailJob19readImageFromStreamEP13_GInputStreamm
libfm-qt.so.6:_ZN2Fm12ThumbnailJob23setMaxThumbnailFileSizeEi
libfm-qt.so.6:_ZN2Fm12ThumbnailJob4execEv
libfm-qt.so.6:_ZN2Fm12ThumbnailJobC1ENS_12FileInfoListEi
libfm-qt.so.6:_ZN2Fm12ThumbnailJobC2ENS_12FileInfoListEi
libfm-qt.so.6:_ZN2Fm12ThumbnailJobD0Ev
libfm-qt.so.6:_ZN2Fm12ThumbnailJobD1Ev
libfm-qt.so.6:_ZN2Fm12ThumbnailJobD2Ev
libfm-qt.so.6:_ZN2Fm12TotalSizeJob11qt_metacallEN11QMetaObject4CallEiPPv
libfm-qt.so.6:_ZN2Fm12TotalSizeJob11qt_metacastEPKc
libfm-qt.so.6:_ZN2Fm12TotalSizeJob4execENS_8FilePathENS_10GObjectPtrI10_GFileInfoEE
libfm-qt.so.6:_ZN2Fm12TotalSizeJob4execEv
libfm-qt.so.6:_ZN2Fm12TotalSizeJobC1ESt6vectorINS_8FilePathESaIS2_EENS0_5FlagsE
libfm-qt.so.6:_ZN2Fm12TotalSizeJobC2ESt6vectorINS_8FilePathESaIS2_EENS0_5FlagsE
libfm-qt.so.6:_ZN2Fm13BrowseHistory11setMaxCountEi
libfm-qt.so.6:_ZN2Fm13BrowseHistory15setCurrentIndexEi
libfm-qt.so.6:_ZN2Fm13BrowseHistory3addENS_8FilePathEi
libfm-qt.so.6:_ZN2Fm13BrowseHistory7forwardEv
libfm-qt.so.6:_ZN2Fm13BrowseHistory8backwardEv
libfm-qt.so.6:_ZN2Fm13BrowseHistoryC1Ev
libfm-qt.so.6:_ZN2Fm13BrowseHistoryC2Ev
libfm-qt.so.6:_ZN2Fm13BrowseHistoryD0Ev
libfm-qt.so.6:_ZN2Fm13BrowseHistoryD1Ev
libfm-qt.so.6:_ZN2Fm13BrowseHistoryD2Ev
libfm-qt.so.6:_ZN2Fm13CreateNewMenu11onCreateNewEv
libfm-qt.so.6:_ZN2Fm13CreateNewMenu11qt_metacallEN11QMetaObject4CallEiPPv
libfm-qt.so.6:_ZN2Fm13CreateNewMenu11qt_metacastEPKc
libfm-qt.so.6:_ZN2Fm13CreateNewMenu15addTemplateItemERKSt10shared_ptrIKNS_12TemplateItemEE
libfm-qt.so.6:_ZN2Fm13CreateNewMenu15onCreateNewFileEv
libfm-qt.so.6:_ZN2Fm13CreateNewMenu17onCreateNewFolderEv
libfm-qt.so.6:_ZN2Fm13CreateNewMenu18removeTemplateItemERKSt10shared_ptrIKNS_12TemplateItemEE
libfm-qt.so.6:_ZN2Fm13CreateNewMenu18updateTemplateItemERKSt10shared_ptrIKNS_12TemplateItemEES6_
libfm-qt.so.6:_ZN2Fm13CreateNewMenuC1EP7QWidgetNS_8FilePathES2_
libfm-qt.so.6:_ZN2Fm13CreateNewMenuC2EP7QWidgetNS_8FilePathES2_
libfm-qt.so.6:_ZN2Fm13CreateNewMenuD0Ev
libfm-qt.so.6:_ZN2Fm13CreateNewMenuD1Ev
libfm-qt.so.6:_ZN2Fm13CreateNewMenuD2Ev
libfm-qt.so.6:_ZN2Fm13FileOperation10onJobErrorERKNS_9GErrorPtrENS_3Job13ErrorSeverityERNS4_11ErrorActionE
libfm-qt.so.6:_ZN2Fm13FileOperation10showDialogEv
libfm-qt.so.6:_ZN2Fm13FileOperation10trashFilesESt6vectorINS_8FilePathESaIS2_EEbP7QWidget
libfm-qt.so.6:_ZN2Fm13FileOperation11deleteFilesESt6vectorINS_8FilePathESaIS2_EEbP7QWidget
libfm-qt.so.6:_ZN2Fm13FileOperation11onJobFinishEv
libfm-qt.so.6:_ZN2Fm13FileOperation11onUiTimeoutEv
libfm-qt.so.6:_ZN2Fm13FileOperation11qt_metacallEN11QMetaObject4CallEiPPv
libfm-qt.so.6:_ZN2Fm13FileOperation11qt_metacastEPKc
libfm-qt.so.6:_ZN2Fm13FileOperation12setDestFilesESt6vectorINS_8FilePathESaIS2_EE
libfm-qt.so.6:_ZN2Fm13FileOperation12symlinkFilesESt6vectorINS_8FilePathESaIS2_EES2_P7QWidget
libfm-qt.so.6:_ZN2Fm13FileOperation12symlinkFilesESt6vectorINS_8FilePathESaIS2_EES4_P7QWidget
libfm-qt.so.6:_ZN2Fm13FileOperation12unTrashFilesESt6vectorINS_8FilePathESaIS2_EEP7QWidget
libfm-qt.so.6:_ZN2Fm13FileOperation13disconnectJobEv
libfm-qt.so.6:_ZN2Fm13FileOperation13onJobPreparedEv
libfm-qt.so.6:_ZN2Fm13FileOperation14onJobCancalledEv
libfm-qt.so.6:_ZN2Fm13FileOperation14setDestinationENS_8FilePathE
libfm-qt.so.6:_ZN2Fm13FileOperation15changeAttrFilesESt6vectorINS_8FilePathESaIS2_EEP7QWidget
libfm-qt.so.6:_ZN2Fm13FileOperation15onJobFileExistsERKNS_8FileInfoES3_RNS_16FileOperationJob16FileExistsActionERNS_8FilePathE
libfm-qt.so.6:_ZN2Fm13FileOperation18setRecursiveChattrEb
libfm-qt.so.6:_ZN2Fm13FileOperation3runEv
libfm-qt.so.6:_ZN2Fm13FileOperation6cancelEv
libfm-qt.so.6:_ZN2Fm13FileOperation8finishedEv
libfm-qt.so.6:_ZN2Fm13FileOperation8setChmodEjj
libfm-qt.so.6:_ZN2Fm13FileOperation8setChownEjj
libfm-qt.so.6:_ZN2Fm13FileOperation9copyFilesESt6vectorINS_8FilePathESaIS2_EES2_P7QWidget
libfm-qt.so.6:_ZN2Fm13FileOperation9copyFilesESt6vectorINS_8FilePathESaIS2_EES4_P7QWidget
libfm-qt.so.6:_ZN2Fm13FileOperation9moveFilesESt6vectorINS_8FilePathESaIS2_EES2_P7QWidget
libfm-qt.so.6:_ZN2Fm13FileOperation9moveFilesESt6vectorINS_8FilePathESaIS2_EES4_P7QWidget
libfm-qt.so.6:_ZN2Fm13FileOperationC1ENS0_4TypeESt6vectorINS_8FilePathESaIS3_EEP7QObject
libfm-qt.so.6:_ZN2Fm13FileOperationC2ENS0_4TypeESt6vectorINS_8FilePathESaIS3_EEP7QObject
libfm-qt.so.6:_ZN2Fm13FileOperationD0Ev
libfm-qt.so.6:_ZN2Fm13FileOperationD1Ev
libfm-qt.so.6:_ZN2Fm13FileOperationD2Ev
libfm-qt.so.6:_ZN2Fm13UserInfoCache10userFromIdEj
libfm-qt.so.6:_ZN2Fm13UserInfoCache11groupFromIdEj
libfm-qt.so.6:_ZN2Fm13UserInfoCache11qt_metacallEN11QMetaObject4CallEiPPv
libfm-qt.so.6:_ZN2Fm13UserInfoCache11qt_metacastEPKc
libfm-qt.so.6:_ZN2Fm13UserInfoCache14globalInstanceEv
libfm-qt.so.6:_ZN2Fm13UserInfoCache7changedEv
libfm-qt.so.6:_ZN2Fm13UserInfoCacheC1Ev
libfm-qt.so.6:_ZN2Fm13UserInfoCacheC2Ev
libfm-qt.so.6:_ZN2Fm13VolumeManager10mountAddedERKNS_5MountE
libfm-qt.so.6:_ZN2Fm13VolumeManager11qt_metacallEN11QMetaObject4CallEiPPv
libfm-qt.so.6:_ZN2Fm13VolumeManager11qt_metacastEPKc
libfm-qt.so.6:_ZN2Fm13VolumeManager11volumeAddedERKNS_6VolumeE
libfm-qt.so.6:_ZN2Fm13VolumeManager12mountChangedERKNS_5MountE
libfm-qt.so.6:_ZN2Fm13VolumeManager12mountRemovedERKNS_5MountE
libfm-qt.so.6:_ZN2Fm13VolumeManager13onGMountAddedEP7_GMount
libfm-qt.so.6:_ZN2Fm13VolumeManager13volumeChangedERKNS_6VolumeE
libfm-qt.so.6:_ZN2Fm13VolumeManager13volumeRemovedERKNS_6VolumeE
libfm-qt.so.6:_ZN2Fm13VolumeManager14globalInstanceEv
libfm-qt.so.6:_ZN2Fm13VolumeManager14onGVolumeAddedEP8_GVolume
libfm-qt.so.6:_ZN2Fm13VolumeManager15onGMountChangedEP7_GMount
libfm-qt.so.6:_ZN2Fm13VolumeManager15onGMountRemovedEP7_GMount
libfm-qt.so.6:_ZN2Fm13VolumeManager16onGVolumeChangedEP8_GVolume
libfm-qt.so.6:_ZN2Fm13VolumeManager16onGVolumeRemovedEP8_GVolume
libfm-qt.so.6:_ZN2Fm13VolumeManager20GetGVolumeMonitorJob4execEv
libfm-qt.so.6:_ZN2Fm13VolumeManager27onGetGVolumeMonitorFinishedEv
libfm-qt.so.6:_ZN2Fm13VolumeManagerC1Ev
libfm-qt.so.6:_ZN2Fm13VolumeManagerC2Ev
libfm-qt.so.6:_ZN2Fm13VolumeManagerD0Ev
libfm-qt.so.6:_ZN2Fm13VolumeManagerD1Ev
libfm-qt.so.6:_ZN2Fm13VolumeManagerD2Ev
libfm-qt.so.6:_ZN2Fm14BookmarkActionC1ESt10shared_ptrIKNS_12BookmarkItemEEP7QObject
libfm-qt.so.6:_ZN2Fm14BookmarkActionC2ESt10shared_ptrIKNS_12BookmarkItemEEP7QObject
libfm-qt.so.6:_ZN2Fm14MountOperation11qt_metacallEN11QMetaObject4CallEiPPv
libfm-qt.so.6:_ZN2Fm14MountOperation11qt_metacastEPKc
libfm-qt.so.6:_ZN2Fm14MountOperation12handleFinishEP7_GError
libfm-qt.so.6:_ZN2Fm14MountOperation13onAskPasswordEP16_GMountOperationPcS3_S3_17GAskPasswordFlagsPS0_
libfm-qt.so.6:_ZN2Fm14MountOperation13onAskQuestionEP16_GMountOperationPcPS3_PS0_
libfm-qt.so.6:_ZN2Fm14MountOperation14mountMountableERKNS_8FilePathE
libfm-qt.so.6:_ZN2Fm14MountOperation14prepareUnmountEP7_GMount
libfm-qt.so.6:_ZN2Fm14MountOperation15onShowProcessesEP16_GMountOperationPcP7_GArrayPS3_PS0_
libfm-qt.so.6:_ZN2Fm14MountOperation19onMountFileFinishedEP6_GFileP13_GAsyncResultP8QPointerIS0_E
libfm-qt.so.6:_ZN2Fm14MountOperation20mountEnclosingVolumeERKNS_8FilePathE
libfm-qt.so.6:_ZN2Fm14MountOperation20onEjectMountFinishedEP7_GMountP13_GAsyncResultP8QPointerIS0_E
libfm-qt.so.6:_ZN2Fm14MountOperation21onEjectVolumeFinishedEP8_GVolumeP13_GAsyncResultP8QPointerIS0_E
libfm-qt.so.6:_ZN2Fm14MountOperation21onMountVolumeFinishedEP8_GVolumeP13_GAsyncResultP8QPointerIS0_E
libfm-qt.so.6:_ZN2Fm14MountOperation21onShowUnmountProgressEP16_GMountOperationPcllPS0_
libfm-qt.so.6:_ZN2Fm14MountOperation22onUnmountMountFinishedEP7_GMountP13_GAsyncResultP8QPointerIS0_E
libfm-qt.so.6:_ZN2Fm14MountOperation24onMountMountableFinishedEP6_GFileP13_GAsyncResultP8QPointerIS0_E
libfm-qt.so.6:_ZN2Fm14MountOperation4waitEv
libfm-qt.so.6:_ZN2Fm14MountOperation7onAbortEP16_GMountOperationPS0_
libfm-qt.so.6:_ZN2Fm14MountOperation8finishedEP7_GError
libfm-qt.so.6:_ZN2Fm14MountOperationC1EbP7QWidget
libfm-qt.so.6:_ZN2Fm14MountOperationC2EbP7QWidget
libfm-qt.so.6:_ZN2Fm14MountOperationD0Ev
libfm-qt.so.6:_ZN2Fm14MountOperationD1Ev
libfm-qt.so.6:_ZN2Fm14MountOperationD2Ev
libfm-qt.so.6:_ZN2Fm14changeFileNameERKNS_8FilePathERK7QStringP7QWidgetb
libfm-qt.so.6:_ZN2Fm14formatFileSizeEmb
libfm-qt.so.6:_ZN2Fm14launchTerminalEPKcRKNS_8FilePathERNS_9GErrorPtrE
libfm-qt.so.6:_ZN2Fm15FilePropsDialog11qt_metacallEN11QMetaObject4CallEiPPv
libfm-qt.so.6:_ZN2Fm15FilePropsDialog11qt_metacastEPKc
libfm-qt.so.6:_ZN2Fm15FilePropsDialog15initGeneralPageEv
libfm-qt.so.6:_ZN2Fm15FilePropsDialog16initApplicationsEv
libfm-qt.so.6:_ZN2Fm15FilePropsDialog19initPermissionsPageEv
libfm-qt.so.6:_ZN2Fm15FilePropsDialog19onIconButtonclickedEv
libfm-qt.so.6:_ZN2Fm15FilePropsDialog22onDeepCountJobFinishedEv
libfm-qt.so.6:_ZN2Fm15FilePropsDialog22onFileSizeTimerTimeoutEv
libfm-qt.so.6:_ZN2Fm15FilePropsDialog6acceptEv
libfm-qt.so.6:_ZN2Fm15FilePropsDialog9initOwnerEv
libfm-qt.so.6:_ZN2Fm15FilePropsDialogC1ENS_12FileInfoListEP7QWidget6QFlagsIN2Qt10WindowTypeEE
libfm-qt.so.6:_ZN2Fm15FilePropsDialogC2ENS_12FileInfoListEP7QWidget6QFlagsIN2Qt10WindowTypeEE
libfm-qt.so.6:_ZN2Fm15FilePropsDialogD0Ev
libfm-qt.so.6:_ZN2Fm15FilePropsDialogD1Ev
libfm-qt.so.6:_ZN2Fm15FilePropsDialogD2Ev
libfm-qt.so.6:_ZN2Fm15FileTransferJob11handleErrorERNS_9GErrorPtrERKNS_8FilePathERKNS_10GObjectPtrI10_GFileInfoEERS3_Ri
libfm-qt.so.6:_ZN2Fm15FileTransferJob11processPathERKNS_8FilePathES3_PKc
libfm-qt.so.6:_ZN2Fm15FileTransferJob11qt_metacallEN11QMetaObject4CallEiPPv
libfm-qt.so.6:_ZN2Fm15FileTransferJob11qt_metacastEPKc
libfm-qt.so.6:_ZN2Fm15FileTransferJob11setSrcPathsESt6vectorINS_8FilePathESaIS2_EE
libfm-qt.so.6:_ZN2Fm15FileTransferJob12setDestPathsESt6vectorINS_8FilePathESaIS2_EE
libfm-qt.so.6:_ZN2Fm15FileTransferJob13createSymlinkERKNS_8FilePathERKNS_10GObjectPtrI10_GFileInfoEERS1_
libfm-qt.so.6:_ZN2Fm15FileTransferJob14copyDirContentERKNS_8FilePathENS_10GObjectPtrI10_GFileInfoEERS1_b
libfm-qt.so.6:_ZN2Fm15FileTransferJob14createShortcutERKNS_8FilePathERKNS_10GObjectPtrI10_GFileInfoEERS1_
libfm-qt.so.6:_ZN2Fm15FileTransferJob14moveFileSameFsERKNS_8FilePathERKNS_10GObjectPtrI10_GFileInfoEERS1_
libfm-qt.so.6:_ZN2Fm15FileTransferJob14setDestDirPathERKNS_8FilePathE
libfm-qt.so.6:_ZN2Fm15FileTransferJob15copyRegularFileERKNS_8FilePathERKNS_10GObjectPtrI10_GFileInfoEERS1_
libfm-qt.so.6:_ZN2Fm15FileTransferJob15copySpecialFileERKNS_8FilePathERKNS_10GObjectPtrI10_GFileInfoEERS1_
libfm-qt.so.6:_ZN2Fm15FileTransferJob25gfileCopyProgressCallbackEllPS0_
libfm-qt.so.6:_ZN2Fm15FileTransferJob4execEv
libfm-qt.so.6:_ZN2Fm15FileTransferJob7makeDirERKNS_8FilePathENS_10GObjectPtrI10_GFileInfoEERS1_
libfm-qt.so.6:_ZN2Fm15FileTransferJob8copyFileERKNS_8FilePathERKNS_10GObjectPtrI10_GFileInfoEES3_PKcb
libfm-qt.so.6:_ZN2Fm15FileTransferJob8linkFileERKNS_8FilePathERKNS_10GObjectPtrI10_GFileInfoEES3_PKc
libfm-qt.so.6:_ZN2Fm15FileTransferJob8moveFileERKNS_8FilePathERKNS_10GObjectPtrI10_GFileInfoEES3_PKc
libfm-qt.so.6:_ZN2Fm15FileTransferJobC1ESt6vectorINS_8FilePathESaIS2_EENS0_4ModeE
libfm-qt.so.6:_ZN2Fm15FileTransferJobC1ESt6vectorINS_8FilePathESaIS2_EERKS2_NS0_4ModeE
libfm-qt.so.6:_ZN2Fm15FileTransferJobC1ESt6vectorINS_8FilePathESaIS2_EES4_NS0_4ModeE
libfm-qt.so.6:_ZN2Fm15FileTransferJobC2ESt6vectorINS_8FilePathESaIS2_EENS0_4ModeE
libfm-qt.so.6:_ZN2Fm15FileTransferJobC2ESt6vectorINS_8FilePathESaIS2_EERKS2_NS0_4ModeE
libfm-qt.so.6:_ZN2Fm15FileTransferJobC2ESt6vectorINS_8FilePathESaIS2_EES4_NS0_4ModeE
libfm-qt.so.6:_ZN2Fm15FolderModelItem12bindCutFilesERKSt10shared_ptrIKSt3setIjSt4lessIjESaIjEEE
libfm-qt.so.6:_ZN2Fm15FolderModelItem13findThumbnailEib
libfm-qt.so.6:_ZN2Fm15FolderModelItem15removeThumbnailEi
libfm-qt.so.6:_ZN2Fm15FolderModelItemC1ERKS0_
libfm-qt.so.6:_ZN2Fm15FolderModelItemC1ERKSt10shared_ptrIKNS_8FileInfoEE
libfm-qt.so.6:_ZN2Fm15FolderModelItemC2ERKS0_
libfm-qt.so.6:_ZN2Fm15FolderModelItemC2ERKSt10shared_ptrIKNS_8FileInfoEE
libfm-qt.so.6:_ZN2Fm15FolderModelItemD0Ev
libfm-qt.so.6:_ZN2Fm15FolderModelItemD1Ev
libfm-qt.so.6:_ZN2Fm15FolderModelItemD2Ev
libfm-qt.so.6:_ZN2Fm15PlacesModelItem10updateIconEv
libfm-qt.so.6:_ZN2Fm15PlacesModelItem7setIconEP6_GIcon
libfm-qt.so.6:_ZN2Fm15PlacesModelItem7setIconESt10shared_ptrIKNS_8IconInfoEE
libfm-qt.so.6:_ZN2Fm15PlacesModelItemC1E5QIcon7QStringNS_8FilePathE
libfm-qt.so.6:_ZN2Fm15PlacesModelItemC1EPKc7QStringNS_8FilePathE
libfm-qt.so.6:_ZN2Fm15PlacesModelItemC1ESt10shared_ptrIKNS_8IconInfoEE7QStringNS_8FilePathE
libfm-qt.so.6:_ZN2Fm15PlacesModelItemC1Ev
libfm-qt.so.6:_ZN2Fm15PlacesModelItemC2E5QIcon7QStringNS_8FilePathE
libfm-qt.so.6:_ZN2Fm15PlacesModelItemC2EPKc7QStringNS_8FilePathE
libfm-qt.so.6:_ZN2Fm15PlacesModelItemC2ESt10shared_ptrIKNS_8IconInfoEE7QStringNS_8FilePathE
libfm-qt.so.6:_ZN2Fm15PlacesModelItemC2Ev
libfm-qt.so.6:_ZN2Fm15PlacesModelItemD0Ev
libfm-qt.so.6:_ZN2Fm15PlacesModelItemD1Ev
libfm-qt.so.6:_ZN2Fm15PlacesModelItemD2Ev
libfm-qt.so.6:_ZN2Fm15defaultTerminalB5cxx11Ev
libfm-qt.so.6:_ZN2Fm16AppChooserDialog11qt_metacallEN11QMetaObject4CallEiPPv
libfm-qt.so.6:_ZN2Fm16AppChooserDialog11qt_metacastEPKc
libfm-qt.so.6:_ZN2Fm16AppChooserDialog11setMimeTypeESt10shared_ptrIKNS_8MimeTypeEE
libfm-qt.so.6:_ZN2Fm16AppChooserDialog12onTabChangedEi
libfm-qt.so.6:_ZN2Fm16AppChooserDialog16setCanSetDefaultEb
libfm-qt.so.6:_ZN2Fm16AppChooserDialog18customCommandToAppEv
libfm-qt.so.6:_ZN2Fm16AppChooserDialog18onSelectionChangedEv
libfm-qt.so.6:_ZN2Fm16AppChooserDialog6acceptEv
libfm-qt.so.6:_ZN2Fm16AppChooserDialogC1ESt10shared_ptrIKNS_8MimeTypeEEP7QWidget6QFlagsIN2Qt10WindowTypeEE
libfm-qt.so.6:_ZN2Fm16AppChooserDialogC2ESt10shared_ptrIKNS_8MimeTypeEEP7QWidget6QFlagsIN2Qt10WindowTypeEE
libfm-qt.so.6:_ZN2Fm16AppChooserDialogD0Ev
libfm-qt.so.6:_ZN2Fm16AppChooserDialogD1Ev
libfm-qt.so.6:_ZN2Fm16AppChooserDialogD2Ev
libfm-qt.so.6:_ZN2Fm16DirTreeModelItem10freeFolderEv
libfm-qt.so.6:_ZN2Fm16DirTreeModelItem10insertFileESt10shared_ptrIKNS_8FileInfoEE
libfm-qt.so.6:_ZN2Fm16DirTreeModelItem10insertItemEPS0_
libfm-qt.so.6:_ZN2Fm16DirTreeModelItem10loadFolderEv
libfm-qt.so.6:_ZN2Fm16DirTreeModelItem11insertFilesENS_12FileInfoListE
libfm-qt.so.6:_ZN2Fm16DirTreeModelItem12unloadFolderEv
libfm-qt.so.6:_ZN2Fm16DirTreeModelItem13childFromNameEPKcPi
libfm-qt.so.6:_ZN2Fm16DirTreeModelItem13setShowHiddenEb
libfm-qt.so.6:_ZN2Fm16DirTreeModelItem18onFolderFilesAddedERNS_12FileInfoListE
libfm-qt.so.6:_ZN2Fm16DirTreeModelItem19addPlaceHolderChildEv
libfm-qt.so.6:_ZN2Fm16DirTreeModelItem20onFolderFilesChangedERSt6vectorISt4pairISt10shared_ptrIKNS_8FileInfoEES6_ESaIS7_EE
libfm-qt.so.6:_ZN2Fm16DirTreeModelItem20onFolderFilesRemovedERNS_12FileInfoListE
libfm-qt.so.6:_ZN2Fm16DirTreeModelItem21onFolderFinishLoadingEv
libfm-qt.so.6:_ZN2Fm16DirTreeModelItem5indexEv
libfm-qt.so.6:_ZN2Fm16DirTreeModelItemC1ESt10shared_ptrIKNS_8FileInfoEEPNS_12DirTreeModelEPS0_
libfm-qt.so.6:_ZN2Fm16DirTreeModelItemC1Ev
libfm-qt.so.6:_ZN2Fm16DirTreeModelItemC2ESt10shared_ptrIKNS_8FileInfoEEPNS_12DirTreeModelEPS0_
libfm-qt.so.6:_ZN2Fm16DirTreeModelItemC2Ev
libfm-qt.so.6:_ZN2Fm16DirTreeModelItemD1Ev
libfm-qt.so.6:_ZN2Fm16DirTreeModelItemD2Ev
libfm-qt.so.6:_ZN2Fm16FileDialogHelper10selectFileERK4QUrl
libfm-qt.so.6:_ZN2Fm16FileDialogHelper11qt_metacallEN11QMetaObject4CallEiPPv
libfm-qt.so.6:_ZN2Fm16FileDialogHelper11qt_metacastEPKc
libfm-qt.so.6:_ZN2Fm16FileDialogHelper12applyOptionsEv
libfm-qt.so.6:_ZN2Fm16FileDialogHelper12loadSettingsEv
libfm-qt.so.6:_ZN2Fm16FileDialogHelper12saveSettingsEv
libfm-qt.so.6:_ZN2Fm16FileDialogHelper12setDirectoryERK4QUrl
libfm-qt.so.6:_ZN2Fm16FileDialogHelper16selectNameFilterERK7QString
libfm-qt.so.6:_ZN2Fm16FileDialogHelper20selectMimeTypeFilterERK7QString
libfm-qt.so.6:_ZN2Fm16FileDialogHelper4execEv
libfm-qt.so.6:_ZN2Fm16FileDialogHelper4hideEv
libfm-qt.so.6:_ZN2Fm16FileDialogHelper4showE6QFlagsIN2Qt10WindowTypeEENS2_14WindowModalityEP7QWindow
libfm-qt.so.6:_ZN2Fm16FileDialogHelper9setFilterEv
libfm-qt.so.6:_ZN2Fm16FileDialogHelperC1Ev
libfm-qt.so.6:_ZN2Fm16FileDialogHelperC2Ev
libfm-qt.so.6:_ZN2Fm16FileDialogHelperD0Ev
libfm-qt.so.6:_ZN2Fm16FileDialogHelperD1Ev
libfm-qt.so.6:_ZN2Fm16FileDialogHelperD2Ev
libfm-qt.so.6:_ZN2Fm16FileOperationJob10fileExistsERKNS_8FileInfoES3_RNS0_16FileExistsActionERNS_8FilePathE
libfm-qt.so.6:_ZN2Fm16FileOperationJob11qt_metacallEN11QMetaObject4CallEiPPv
libfm-qt.so.6:_ZN2Fm16FileOperationJob11qt_metacastEPKc
libfm-qt.so.6:_ZN2Fm16FileOperationJob13preparedToRunEv
libfm-qt.so.6:_ZN2Fm16FileOperationJob14setCurrentFileERKNS_8FilePathE
libfm-qt.so.6:_ZN2Fm16FileOperationJob14setTotalAmountEmm
libfm-qt.so.6:_ZN2Fm16FileOperationJob17addFinishedAmountEmm
libfm-qt.so.6:_ZN2Fm16FileOperationJob17setFinishedAmountEmm
libfm-qt.so.6:_ZN2Fm16FileOperationJob22setCurrentFileProgressEmm
libfm-qt.so.6:_ZN2Fm16FileOperationJob9askRenameERKNS_8FileInfoES3_RNS_8FilePathE
libfm-qt.so.6:_ZN2Fm16FileOperationJobC1Ev
libfm-qt.so.6:_ZN2Fm16FileOperationJobC2Ev
libfm-qt.so.6:_ZN2Fm16FileSearchDialog12onRemovePathEv
libfm-qt.so.6:_ZN2Fm16FileSearchDialog12setRecursiveEb
libfm-qt.so.6:_ZN2Fm16FileSearchDialog13setNameRegexpEb
libfm-qt.so.6:_ZN2Fm16FileSearchDialog16setContentRegexpEb
libfm-qt.so.6:_ZN2Fm16FileSearchDialog16setSearchhHiddenEb
libfm-qt.so.6:_ZN2Fm16FileSearchDialog22setNameCaseInsensitiveEb
libfm-qt.so.6:_ZN2Fm16FileSearchDialog25setContentCaseInsensitiveEb
libfm-qt.so.6:_ZN2Fm16FileSearchDialog6acceptEv
libfm-qt.so.6:_ZN2Fm16FileSearchDialog9onAddPathEv
libfm-qt.so.6:_ZN2Fm16FileSearchDialogC1E11QStringListP7QWidget6QFlagsIN2Qt10WindowTypeEE
libfm-qt.so.6:_ZN2Fm16FileSearchDialogC2E11QStringListP7QWidget6QFlagsIN2Qt10WindowTypeEE
libfm-qt.so.6:_ZN2Fm16FileSearchDialogD0Ev
libfm-qt.so.6:_ZN2Fm16FileSearchDialogD1Ev
libfm-qt.so.6:_ZN2Fm16FileSearchDialogD2Ev
libfm-qt.so.6:_ZN2Fm16PlacesProxyModel11qt_metacallEN11QMetaObject4CallEiPPv
libfm-qt.so.6:_ZN2Fm16PlacesProxyModel11qt_metacastEPKc
libfm-qt.so.6:_ZN2Fm16PlacesProxyModel18restoreHiddenItemsERK4QSetI7QStringE
libfm-qt.so.6:_ZN2Fm16PlacesProxyModel7showAllEb
libfm-qt.so.6:_ZN2Fm16PlacesProxyModel9setHiddenERK7QStringb
libfm-qt.so.6:_ZN2Fm16PlacesProxyModelC1EP7QObject
libfm-qt.so.6:_ZN2Fm16PlacesProxyModelC2EP7QObject
libfm-qt.so.6:_ZN2Fm16PlacesProxyModelD0Ev
libfm-qt.so.6:_ZN2Fm16PlacesProxyModelD1Ev
libfm-qt.so.6:_ZN2Fm16PlacesProxyModelD2Ev
libfm-qt.so.6:_ZN2Fm16ProxyFolderModel11qt_metacallEN11QMetaObject4CallEiPPv
libfm-qt.so.6:_ZN2Fm16ProxyFolderModel11qt_metacastEPKc
libfm-qt.so.6:_ZN2Fm16ProxyFolderModel11setCutFilesERK14QItemSelection
libfm-qt.so.6:_ZN2Fm16ProxyFolderModel12removeFilterEPNS_22ProxyFolderModelFilterE
libfm-qt.so.6:_ZN2Fm16ProxyFolderModel13setShowHiddenEb
libfm-qt.so.6:_ZN2Fm16ProxyFolderModel13updateFiltersEv
libfm-qt.so.6:_ZN2Fm16ProxyFolderModel14setFolderFirstEb
libfm-qt.so.6:_ZN2Fm16ProxyFolderModel14setSourceModelEP18QAbstractItemModel
libfm-qt.so.6:_ZN2Fm16ProxyFolderModel16setThumbnailSizeEi
libfm-qt.so.6:_ZN2Fm16ProxyFolderModel17onThumbnailLoadedERK11QModelIndexi
libfm-qt.so.6:_ZN2Fm16ProxyFolderModel17setBackupAsHiddenEb
libfm-qt.so.6:_ZN2Fm16ProxyFolderModel17setShowThumbnailsEb
libfm-qt.so.6:_ZN2Fm16ProxyFolderModel17sortFilterChangedEv
libfm-qt.so.6:_ZN2Fm16ProxyFolderModel22setSortCaseSensitivityEN2Qt15CaseSensitivityE
libfm-qt.so.6:_ZN2Fm16ProxyFolderModel4sortEiN2Qt9SortOrderE
libfm-qt.so.6:_ZN2Fm16ProxyFolderModel9addFilterEPNS_22ProxyFolderModelFilterE
libfm-qt.so.6:_ZN2Fm16ProxyFolderModelC1EP7QObject
libfm-qt.so.6:_ZN2Fm16ProxyFolderModelC2EP7QObject
libfm-qt.so.6:_ZN2Fm16ProxyFolderModelD0Ev
libfm-qt.so.6:_ZN2Fm16ProxyFolderModelD1Ev
libfm-qt.so.6:_ZN2Fm16ProxyFolderModelD2Ev
libfm-qt.so.6:_ZN2Fm17BasicFileLauncher10openFolderEP18_GAppLaunchContextRKNS_12FileInfoListERNS_9GErrorPtrE
libfm-qt.so.6:_ZN2Fm17BasicFileLauncher11askExecFileERKSt10shared_ptrIKNS_8FileInfoEE
libfm-qt.so.6:_ZN2Fm17BasicFileLauncher11launchFilesERKNS_12FileInfoListEP18_GAppLaunchContext
libfm-qt.so.6:_ZN2Fm17BasicFileLauncher11launchPathsESt6vectorINS_8FilePathESaIS2_EEP18_GAppLaunchContext
libfm-qt.so.6:_ZN2Fm17BasicFileLauncher13launchWithAppEP9_GAppInfoRKSt6vectorINS_8FilePathESaIS4_EEP18_GAppLaunchContext
libfm-qt.so.6:_ZN2Fm17BasicFileLauncher14handleShortcutERKSt10shared_ptrIKNS_8FileInfoEEP18_GAppLaunchContext
libfm-qt.so.6:_ZN2Fm17BasicFileLauncher16launchExecutableERKSt10shared_ptrIKNS_8FileInfoEEP18_GAppLaunchContext
libfm-qt.so.6:_ZN2Fm17BasicFileLauncher18launchDesktopEntryEPKcRKSt6vectorINS_8FilePathESaIS4_EEP18_GAppLaunchContext
libfm-qt.so.6:_ZN2Fm17BasicFileLauncher18launchDesktopEntryERKSt10shared_ptrIKNS_8FileInfoEERKSt6vectorINS_8FilePathESaIS8_EEP18_GAppLaunchContext
libfm-qt.so.6:_ZN2Fm17BasicFileLauncher20launchWithDefaultAppERKSt10shared_ptrIKNS_8FileInfoEEP18_GAppLaunchContext
libfm-qt.so.6:_ZN2Fm17BasicFileLauncher3askEPKcPKPci
libfm-qt.so.6:_ZN2Fm17BasicFileLauncher9chooseAppERKNS_12FileInfoListEPKcRNS_9GErrorPtrE
libfm-qt.so.6:_ZN2Fm17BasicFileLauncher9showErrorEP18_GAppLaunchContextRKNS_9GErrorPtrERKNS_8FilePathERKSt10shared_ptrIKNS_8FileInfoEE
libfm-qt.so.6:_ZN2Fm17BasicFileLauncherC1Ev
libfm-qt.so.6:_ZN2Fm17BasicFileLauncherC2Ev
libfm-qt.so.6:_ZN2Fm17BasicFileLauncherD0Ev
libfm-qt.so.6:_ZN2Fm17BasicFileLauncherD1Ev
libfm-qt.so.6:_ZN2Fm17BasicFileLauncherD2Ev
libfm-qt.so.6:_ZN2Fm17CachedFolderModel11qt_metacallEN11QMetaObject4CallEiPPv
libfm-qt.so.6:_ZN2Fm17CachedFolderModel11qt_metacastEPKc
libfm-qt.so.6:_ZN2Fm17CachedFolderModel13modelFromPathERKNS_8FilePathE
libfm-qt.so.6:_ZN2Fm17CachedFolderModel15modelFromFolderERKSt10shared_ptrINS_6FolderEE
libfm-qt.so.6:_ZN2Fm17CachedFolderModel5unrefEv
libfm-qt.so.6:_ZN2Fm17CachedFolderModelC1ERKSt10shared_ptrINS_6FolderEE
libfm-qt.so.6:_ZN2Fm17CachedFolderModelC2ERKSt10shared_ptrINS_6FolderEE
libfm-qt.so.6:_ZN2Fm17CachedFolderModelD0Ev
libfm-qt.so.6:_ZN2Fm17CachedFolderModelD1Ev
libfm-qt.so.6:_ZN2Fm17CachedFolderModelD2Ev
libfm-qt.so.6:_ZN2Fm17FileChangeAttrJob11handleErrorERNS_9GErrorPtrERKNS_8FilePathERKNS_10GObjectPtrI10_GFileInfoEENS_3Job13ErrorSeverityE
libfm-qt.so.6:_ZN2Fm17FileChangeAttrJob11processFileERKNS_8FilePathERKNS_10GObjectPtrI10_GFileInfoEE
libfm-qt.so.6:_ZN2Fm17FileChangeAttrJob11qt_metacallEN11QMetaObject4CallEiPPv
libfm-qt.so.6:_ZN2Fm17FileChangeAttrJob11qt_metacastEPKc
libfm-qt.so.6:_ZN2Fm17FileChangeAttrJob14changeFileIconERKNS_8FilePathERKNS_10GObjectPtrI10_GFileInfoEERNS4_I6_GIconEE
libfm-qt.so.6:_ZN2Fm17FileChangeAttrJob14changeFileModeERKNS_8FilePathERKNS_10GObjectPtrI10_GFileInfoEEjj
libfm-qt.so.6:_ZN2Fm17FileChangeAttrJob15changeFileGroupERKNS_8FilePathERKNS_10GObjectPtrI10_GFileInfoEEj
libfm-qt.so.6:_ZN2Fm17FileChangeAttrJob15changeFileOwnerERKNS_8FilePathERKNS_10GObjectPtrI10_GFileInfoEEj
libfm-qt.so.6:_ZN2Fm17FileChangeAttrJob16changeFileHiddenERKNS_8FilePathERKNS_10GObjectPtrI10_GFileInfoEEb
libfm-qt.so.6:_ZN2Fm17FileChangeAttrJob19changeFileTargetUriERKNS_8FilePathERKNS_10GObjectPtrI10_GFileInfoEEPKc
libfm-qt.so.6:_ZN2Fm17FileChangeAttrJob21changeFileDisplayNameERKNS_8FilePathERKNS_10GObjectPtrI10_GFileInfoEEPKc
libfm-qt.so.6:_ZN2Fm17FileChangeAttrJob4execEv
libfm-qt.so.6:_ZN2Fm17FileChangeAttrJobC1ESt6vectorINS_8FilePathESaIS2_EE
libfm-qt.so.6:_ZN2Fm17FileChangeAttrJobC2ESt6vectorINS_8FilePathESaIS2_EE
libfm-qt.so.6:_ZN2Fm17FileSystemInfoJob11qt_metacallEN11QMetaObject4CallEiPPv
libfm-qt.so.6:_ZN2Fm17FileSystemInfoJob11qt_metacastEPKc
libfm-qt.so.6:_ZN2Fm17FileSystemInfoJob4execEv
libfm-qt.so.6:_ZN2Fm17allKnownTerminalsEv
libfm-qt.so.6:_ZN2Fm17pathListFromQUrlsE5QListI4QUrlE
libfm-qt.so.6:_ZN2Fm17pathListToUriListERKSt6vectorINS_8FilePathESaIS1_EE
libfm-qt.so.6:_ZN2Fm18AppChooserComboBox11qt_metacallEN11QMetaObject4CallEiPPv
libfm-qt.so.6:_ZN2Fm18AppChooserComboBox11qt_metacastEPKc
libfm-qt.so.6:_ZN2Fm18AppChooserComboBox11setMimeTypeESt10shared_ptrIKNS_8MimeTypeEE
libfm-qt.so.6:_ZN2Fm18AppChooserComboBox21onCurrentIndexChangedEi
libfm-qt.so.6:_ZN2Fm18AppChooserComboBoxC1EP7QWidget
libfm-qt.so.6:_ZN2Fm18AppChooserComboBoxC2EP7QWidget
libfm-qt.so.6:_ZN2Fm18AppChooserComboBoxD0Ev
libfm-qt.so.6:_ZN2Fm18AppChooserComboBoxD1Ev
libfm-qt.so.6:_ZN2Fm18AppChooserComboBoxD2Ev
libfm-qt.so.6:_ZN2Fm18FolderItemDelegate11eventFilterEP7QObjectP6QEvent
libfm-qt.so.6:_ZN2Fm18FolderItemDelegate11qt_metacallEN11QMetaObject4CallEiPPv
libfm-qt.so.6:_ZN2Fm18FolderItemDelegate11qt_metacastEPKc
libfm-qt.so.6:_ZN2Fm18FolderItemDelegate17iconModeFromStateE6QFlagsIN6QStyle9StateFlagEE
libfm-qt.so.6:_ZN2Fm18FolderItemDelegateC1EP17QAbstractItemViewP7QObject
libfm-qt.so.6:_ZN2Fm18FolderItemDelegateC2EP17QAbstractItemViewP7QObject
libfm-qt.so.6:_ZN2Fm18FolderItemDelegateD0Ev
libfm-qt.so.6:_ZN2Fm18FolderItemDelegateD1Ev
libfm-qt.so.6:_ZN2Fm18FolderItemDelegateD2Ev
libfm-qt.so.6:_ZN2Fm18createFileOrFolderENS_14CreateFileTypeENS_8FilePathEPKNS_12TemplateItemEP7QWidget
libfm-qt.so.6:_ZN2Fm18execModelessDialogEP7QDialog
libfm-qt.so.6:_ZN2Fm18parseClipboardDataERK9QMimeData
libfm-qt.so.6:_ZN2Fm18setDefaultTerminalENSt7__cxx1112basic_stringIcSt11char_traitsIcESaIcEEE
libfm-qt.so.6:_ZN2Fm19EditBookmarksDialog11qt_metacallEN11QMetaObject4CallEiPPv
libfm-qt.so.6:_ZN2Fm19EditBookmarksDialog11qt_metacastEPKc
libfm-qt.so.6:_ZN2Fm19EditBookmarksDialog12onRemoveItemEv
libfm-qt.so.6:_ZN2Fm19EditBookmarksDialog6acceptEv
libfm-qt.so.6:_ZN2Fm19EditBookmarksDialog9onAddItemEv
libfm-qt.so.6:_ZN2Fm19EditBookmarksDialogC1ESt10shared_ptrINS_9BookmarksEEP7QWidget6QFlagsIN2Qt10WindowTypeEE
libfm-qt.so.6:_ZN2Fm19EditBookmarksDialogC2ESt10shared_ptrINS_9BookmarksEEP7QWidget6QFlagsIN2Qt10WindowTypeEE
libfm-qt.so.6:_ZN2Fm19EditBookmarksDialogD0Ev
libfm-qt.so.6:_ZN2Fm19EditBookmarksDialogD1Ev
libfm-qt.so.6:_ZN2Fm19EditBookmarksDialogD2Ev
libfm-qt.so.6:_ZN2Fm19FileOperationDialog10setCurFileE7QString
libfm-qt.so.6:_ZN2Fm19FileOperationDialog10setPercentEj
libfm-qt.so.6:_ZN2Fm19FileOperationDialog11qt_metacallEN11QMetaObject4CallEiPPv
libfm-qt.so.6:_ZN2Fm19FileOperationDialog11qt_metacastEPKc
libfm-qt.so.6:_ZN2Fm19FileOperationDialog11setDestPathERKNS_8FilePathE
libfm-qt.so.6:_ZN2Fm19FileOperationDialog11setPreparedEv
libfm-qt.so.6:_ZN2Fm19FileOperationDialog14setSourceFilesERKSt6vectorINS_8FilePathESaIS2_EE
libfm-qt.so.6:_ZN2Fm19FileOperationDialog16setRemainingTimeEj
libfm-qt.so.6:_ZN2Fm19FileOperationDialog17setFilesProcessedEmm
libfm-qt.so.6:_ZN2Fm19FileOperationDialog18setDataTransferredEmm
libfm-qt.so.6:_ZN2Fm19FileOperationDialog3askE7QStringPKPc
libfm-qt.so.6:_ZN2Fm19FileOperationDialog5errorEP7_GErrorNS_3Job13ErrorSeverityE
libfm-qt.so.6:_ZN2Fm19FileOperationDialog6rejectEv
libfm-qt.so.6:_ZN2Fm19FileOperationDialog9askRenameERKNS_8FileInfoES3_RNS_8FilePathE
libfm-qt.so.6:_ZN2Fm19FileOperationDialogC1EPNS_13FileOperationE
libfm-qt.so.6:_ZN2Fm19FileOperationDialogC2EPNS_13FileOperationE
libfm-qt.so.6:_ZN2Fm19FileOperationDialogD0Ev
libfm-qt.so.6:_ZN2Fm19FileOperationDialogD1Ev
libfm-qt.so.6:_ZN2Fm19FileOperationDialogD2Ev
libfm-qt.so.6:_ZN2Fm19cutFilesToClipboardERKSt6vectorINS_8FilePathESaIS1_EE
libfm-qt.so.6:_ZN2Fm19pathListFromUriListEPKc
libfm-qt.so.6:_ZN2Fm20PlacesModelMountItem6updateEv
libfm-qt.so.6:_ZN2Fm20PlacesModelMountItemC1EP7_GMount
libfm-qt.so.6:_ZN2Fm20PlacesModelMountItemC2EP7_GMount
libfm-qt.so.6:_ZN2Fm20copyFilesToClipboardERKSt6vectorINS_8FilePathESaIS1_EE
libfm-qt.so.6:_ZN2Fm20isUriSchemeSupportedEPKc
libfm-qt.so.6:_ZN2Fm21PlacesModelVolumeItem6updateEv
libfm-qt.so.6:_ZN2Fm21PlacesModelVolumeItem9isMountedEv
libfm-qt.so.6:_ZN2Fm21PlacesModelVolumeItemC1EP8_GVolume
libfm-qt.so.6:_ZN2Fm21PlacesModelVolumeItemC2EP8_GVolume
libfm-qt.so.6:_ZN2Fm23PlacesModelBookmarkItemC1ESt10shared_ptrIKNS_12BookmarkItemEE
libfm-qt.so.6:_ZN2Fm23PlacesModelBookmarkItemC2ESt10shared_ptrIKNS_12BookmarkItemEE
libfm-qt.so.6:_ZN2Fm23pasteFilesFromClipboardERKNS_8FilePathEP7QWidget
libfm-qt.so.6:_ZN2Fm25isCurrentPidClipboardDataERK9QMimeData
libfm-qt.so.6:_ZN2Fm3Job11qt_metacallEN11QMetaObject4CallEiPPv
libfm-qt.so.6:_ZN2Fm3Job11qt_metacastEPKc
libfm-qt.so.6:_ZN2Fm3Job3runEv
libfm-qt.so.6:_ZN2Fm3Job5errorERKNS_9GErrorPtrENS0_13ErrorSeverityERNS0_11ErrorActionE
libfm-qt.so.6:_ZN2Fm3Job6cancelEv
libfm-qt.so.6:_ZN2Fm3Job8finishedEv
libfm-qt.so.6:_ZN2Fm3Job8runAsyncEN7QThread8PriorityE
libfm-qt.so.6:_ZN2Fm3Job9cancelledEv
libfm-qt.so.6:_ZN2Fm3Job9emitErrorERKNS_9GErrorPtrENS0_13ErrorSeverityE
libfm-qt.so.6:_ZN2Fm3JobC1Ev
libfm-qt.so.6:_ZN2Fm3JobC2Ev
libfm-qt.so.6:_ZN2Fm3JobD0Ev
libfm-qt.so.6:_ZN2Fm3JobD1Ev
libfm-qt.so.6:_ZN2Fm3JobD2Ev
libfm-qt.so.6:_ZN2Fm6Folder10filesAddedERNS_12FileInfoListE
libfm-qt.so.6:_ZN2Fm6Folder11hasCutFilesEv
libfm-qt.so.6:_ZN2Fm6Folder11qt_metacallEN11QMetaObject4CallEiPPv
libfm-qt.so.6:_ZN2Fm6Folder11qt_metacastEPKc
libfm-qt.so.6:_ZN2Fm6Folder11queueReloadEv
libfm-qt.so.6:_ZN2Fm6Folder11queueUpdateEv
libfm-qt.so.6:_ZN2Fm6Folder11setCutFilesERKSt10shared_ptrIKSt3setIjSt4lessIjESaIjEEE
libfm-qt.so.6:_ZN2Fm6Folder12filesChangedERSt6vectorISt4pairISt10shared_ptrIKNS_8FileInfoEES6_ESaIS7_EE
libfm-qt.so.6:_ZN2Fm6Folder12filesRemovedERNS_12FileInfoListE
libfm-qt.so.6:_ZN2Fm6Folder12onDirChangedE17GFileMonitorEvent
libfm-qt.so.6:_ZN2Fm6Folder12onIdleReloadEv
libfm-qt.so.6:_ZN2Fm6Folder12onMountAddedERKNS_5MountE
libfm-qt.so.6:_ZN2Fm6Folder12startLoadingEv
libfm-qt.so.6:_ZN2Fm6Folder13finishLoadingEv
libfm-qt.so.6:_ZN2Fm6Folder13makeDirectoryEPKcPP7_GError
libfm-qt.so.6:_ZN2Fm6Folder14contentChangedEv
libfm-qt.so.6:_ZN2Fm6Folder14eventFileAddedERKNS_8FilePathE
libfm-qt.so.6:_ZN2Fm6Folder14onMountRemovedERKNS_5MountE
libfm-qt.so.6:_ZN2Fm6Folder16eventFileChangedERKNS_8FilePathE
libfm-qt.so.6:_ZN2Fm6Folder16eventFileDeletedERKNS_8FilePathE
libfm-qt.so.6:_ZN2Fm6Folder16hadCutFilesUnsetEv
libfm-qt.so.6:_ZN2Fm6Folder17fileSystemChangedEv
libfm-qt.so.6:_ZN2Fm6Folder17onDirListFinishedEv
libfm-qt.so.6:_ZN2Fm6Folder18onFileChangeEventsEP13_GFileMonitorP6_GFileS4_17GFileMonitorEvent
libfm-qt.so.6:_ZN2Fm6Folder18onFileInfoFinishedEv
libfm-qt.so.6:_ZN2Fm6Folder19queryFilesystemInfoEv
libfm-qt.so.6:_ZN2Fm6Folder21processPendingChangesEv
libfm-qt.so.6:_ZN2Fm6Folder24onFileSystemInfoFinishedEv
libfm-qt.so.6:_ZN2Fm6Folder5errorERKNS_9GErrorPtrENS_3Job13ErrorSeverityERNS4_11ErrorActionE
libfm-qt.so.6:_ZN2Fm6Folder6reloadEv
libfm-qt.so.6:_ZN2Fm6Folder7changedEv
libfm-qt.so.6:_ZN2Fm6Folder7removedEv
libfm-qt.so.6:_ZN2Fm6Folder7unmountEv
libfm-qt.so.6:_ZN2Fm6Folder8fromPathERKNS_8FilePathE
libfm-qt.so.6:_ZN2Fm6FolderC1ERKNS_8FilePathE
libfm-qt.so.6:_ZN2Fm6FolderC1Ev
libfm-qt.so.6:_ZN2Fm6FolderC2ERKNS_8FilePathE
libfm-qt.so.6:_ZN2Fm6FolderC2Ev
libfm-qt.so.6:_ZN2Fm6FolderD0Ev
libfm-qt.so.6:_ZN2Fm6FolderD1Ev
libfm-qt.so.6:_ZN2Fm6FolderD2Ev
libfm-qt.so.6:_ZN2Fm7LibFmQt10translatorEv
libfm-qt.so.6:_ZN2Fm7LibFmQtC1Ev
libfm-qt.so.6:_ZN2Fm7LibFmQtC2Ev
libfm-qt.so.6:_ZN2Fm7LibFmQtD1Ev
libfm-qt.so.6:_ZN2Fm7LibFmQtD2Ev
libfm-qt.so.6:_ZN2Fm7PathBar10openEditorEv
libfm-qt.so.6:_ZN2Fm7PathBar10wheelEventEP11QWheelEvent
libfm-qt.so.6:_ZN2Fm7PathBar11closeEditorEv
libfm-qt.so.6:_ZN2Fm7PathBar11qt_metacallEN11QMetaObject4CallEiPPv
libfm-qt.so.6:_ZN2Fm7PathBar11qt_metacastEPKc
libfm-qt.so.6:_ZN2Fm7PathBar11resizeEventEP12QResizeEvent
libfm-qt.so.6:_ZN2Fm7PathBar13pathForButtonEPNS_10PathButtonE
libfm-qt.so.6:_ZN2Fm7PathBar15editingFinishedEv
libfm-qt.so.6:_ZN2Fm7PathBar15mousePressEventEP11QMouseEvent
libfm-qt.so.6:_ZN2Fm7PathBar15onButtonToggledEb
libfm-qt.so.6:_ZN2Fm7PathBar15onReturnPressedEv
libfm-qt.so.6:_ZN2Fm7PathBar16contextMenuEventEP17QContextMenuEvent
libfm-qt.so.6:_ZN2Fm7PathBar16middleClickChdirERKNS_8FilePathE
libfm-qt.so.6:_ZN2Fm7PathBar20ensureToggledVisibleEv
libfm-qt.so.6:_ZN2Fm7PathBar20setArrowEnabledStateEi
libfm-qt.so.6:_ZN2Fm7PathBar21onScrollButtonClickedEv
libfm-qt.so.6:_ZN2Fm7PathBar25setScrollButtonVisibilityEv
libfm-qt.so.6:_ZN2Fm7PathBar28updateScrollButtonVisibilityEv
libfm-qt.so.6:_ZN2Fm7PathBar5chdirERKNS_8FilePathE
libfm-qt.so.6:_ZN2Fm7PathBar7setPathENS_8FilePathE
libfm-qt.so.6:_ZN2Fm7PathBar8copyPathEv
libfm-qt.so.6:_ZN2Fm7PathBarC1EP7QWidget
libfm-qt.so.6:_ZN2Fm7PathBarC2EP7QWidget
libfm-qt.so.6:_ZN2Fm8Archiver12allArchiversEv
libfm-qt.so.6:_ZN2Fm8Archiver13createArchiveEP18_GAppLaunchContextRKSt6vectorINS_8FilePathESaIS4_EE
libfm-qt.so.6:_ZN2Fm8Archiver13launchProgramEP18_GAppLaunchContextPKcRKSt6vectorINS_8FilePathESaIS6_EERKS6_
libfm-qt.so.6:_ZN2Fm8Archiver15defaultArchiverEv
libfm-qt.so.6:_ZN2Fm8Archiver15extractArchivesEP18_GAppLaunchContextRKSt6vectorINS_8FilePathESaIS4_EE
libfm-qt.so.6:_ZN2Fm8Archiver17extractArchivesToEP18_GAppLaunchContextRKSt6vectorINS_8FilePathESaIS4_EERKS4_
libfm-qt.so.6:_ZN2Fm8Archiver18setDefaultArchiverEPS0_
libfm-qt.so.6:_ZN2Fm8Archiver19isMimeTypeSupportedEPKc
libfm-qt.so.6:_ZN2Fm8Archiver24setDefaultArchiverByNameEPKc
libfm-qt.so.6:_ZN2Fm8ArchiverC1Ev
libfm-qt.so.6:_ZN2Fm8ArchiverC2Ev
libfm-qt.so.6:_ZN2Fm8FileInfo12bindCutFilesERKSt10shared_ptrIKSt3setIjSt4lessIjESaIjEEE
libfm-qt.so.6:_ZN2Fm8FileInfo16setFromGFileInfoERKNS_10GObjectPtrI10_GFileInfoEERKNS_8FilePathES8_
libfm-qt.so.6:_ZN2Fm8FileInfoC1ERKNS_10GObjectPtrI10_GFileInfoEERKNS_8FilePathES8_
libfm-qt.so.6:_ZN2Fm8FileInfoC1Ev
libfm-qt.so.6:_ZN2Fm8FileInfoC2ERKNS_10GObjectPtrI10_GFileInfoEERKNS_8FilePathES8_
libfm-qt.so.6:_ZN2Fm8FileInfoC2Ev
libfm-qt.so.6:_ZN2Fm8FileInfoD0Ev
libfm-qt.so.6:_ZN2Fm8FileInfoD1Ev
libfm-qt.so.6:_ZN2Fm8FileInfoD2Ev
libfm-qt.so.6:_ZN2Fm8FileMenu10onCompressEv
libfm-qt.so.6:_ZN2Fm8FileMenu11qt_metacallEN11QMetaObject4CallEiPPv
libfm-qt.so.6:_ZN2Fm8FileMenu11qt_metacastEPKc
libfm-qt.so.6:_ZN2Fm8FileMenu11setUseTrashEb
libfm-qt.so.6:_ZN2Fm8FileMenu13onExtractHereEv
libfm-qt.so.6:_ZN2Fm8FileMenu14addTrustActionEv
libfm-qt.so.6:_ZN2Fm8FileMenu14onCutTriggeredEv
libfm-qt.so.6:_ZN2Fm8FileMenu14onTrustToggledEb
libfm-qt.so.6:_ZN2Fm8FileMenu15onCopyTriggeredEv
libfm-qt.so.6:_ZN2Fm8FileMenu15onOpenTriggeredEv
libfm-qt.so.6:_ZN2Fm8FileMenu16onPasteTriggeredEv
libfm-qt.so.6:_ZN2Fm8FileMenu16openFilesWithAppEP9_GAppInfo
libfm-qt.so.6:_ZN2Fm8FileMenu17onDeleteTriggeredEv
libfm-qt.so.6:_ZN2Fm8FileMenu17onRenameTriggeredEv
libfm-qt.so.6:_ZN2Fm8FileMenu18onUnTrashTriggeredEv
libfm-qt.so.6:_ZN2Fm8FileMenu19addCustomActionItemEP5QMenuSt10shared_ptrIKNS_14FileActionItemEE
libfm-qt.so.6:_ZN2Fm8FileMenu19onOpenWithTriggeredEv
libfm-qt.so.6:_ZN2Fm8FileMenu22onApplicationTriggeredEv
libfm-qt.so.6:_ZN2Fm8FileMenu23onCustomActionTrigerredEv
libfm-qt.so.6:_ZN2Fm8FileMenu25onFilePropertiesTriggeredEv
libfm-qt.so.6:_ZN2Fm8FileMenu9onExtractEv
libfm-qt.so.6:_ZN2Fm8FileMenuC1ENS_12FileInfoListESt10shared_ptrIKNS_8FileInfoEENS_8FilePathEbRK7QStringP7QWidget
libfm-qt.so.6:_ZN2Fm8FileMenuC2ENS_12FileInfoListESt10shared_ptrIKNS_8FileInfoEENS_8FilePathEbRK7QStringP7QWidget
libfm-qt.so.6:_ZN2Fm8FileMenuD0Ev
libfm-qt.so.6:_ZN2Fm8FileMenuD1Ev
libfm-qt.so.6:_ZN2Fm8FileMenuD2Ev
libfm-qt.so.6:_ZN2Fm8FilePath7homeDirEv
libfm-qt.so.6:_ZN2Fm8IconInfo12updateQIconsEv
libfm-qt.so.6:_ZN2Fm8IconInfo15qiconsFromNamesEPKPKc
libfm-qt.so.6:_ZN2Fm8IconInfo8fromNameEPKc
libfm-qt.so.6:_ZN2Fm8IconInfo9fromGIconENS_10GObjectPtrI6_GIconEE
libfm-qt.so.6:_ZN2Fm8IconInfoC1ENS_10GObjectPtrI6_GIconEE
libfm-qt.so.6:_ZN2Fm8IconInfoC1EPKc
libfm-qt.so.6:_ZN2Fm8IconInfoC2ENS_10GObjectPtrI6_GIconEE
libfm-qt.so.6:_ZN2Fm8IconInfoC2EPKc
libfm-qt.so.6:_ZN2Fm8IconInfoD1Ev
libfm-qt.so.6:_ZN2Fm8IconInfoD2Ev
libfm-qt.so.6:_ZN2Fm8MimeType17guessFromFileNameEPKc
libfm-qt.so.6:_ZN2Fm8MimeType8fromNameEPKc
libfm-qt.so.6:_ZN2Fm8MimeTypeC1EPKc
libfm-qt.so.6:_ZN2Fm8MimeTypeC2EPKc
libfm-qt.so.6:_ZN2Fm8MimeTypeD1Ev
libfm-qt.so.6:_ZN2Fm8MimeTypeD2Ev
libfm-qt.so.6:_ZN2Fm8PathEdit11qt_metacallEN11QMetaObject4CallEiPPv
libfm-qt.so.6:_ZN2Fm8PathEdit11qt_metacastEPKc
libfm-qt.so.6:_ZN2Fm8PathEdit12autoCompleteEv
libfm-qt.so.6:_ZN2Fm8PathEdit12focusInEventEP11QFocusEvent
libfm-qt.so.6:_ZN2Fm8PathEdit12onTextEditedERK7QString
libfm-qt.so.6:_ZN2Fm8PathEdit13focusOutEventEP11QFocusEvent
libfm-qt.so.6:_ZN2Fm8PathEdit13freeCompleterEv
libfm-qt.so.6:_ZN2Fm8PathEdit13onJobFinishedEv
libfm-qt.so.6:_ZN2Fm8PathEdit13onTextChangedERK7QString
libfm-qt.so.6:_ZN2Fm8PathEdit15reloadCompleterEb
libfm-qt.so.6:_ZN2Fm8PathEdit5eventEP6QEvent
libfm-qt.so.6:_ZN2Fm8PathEditC1EP7QWidget
libfm-qt.so.6:_ZN2Fm8PathEditC2EP7QWidget
libfm-qt.so.6:_ZN2Fm8PathEditD0Ev
libfm-qt.so.6:_ZN2Fm8PathEditD1Ev
libfm-qt.so.6:_ZN2Fm8PathEditD2Ev
libfm-qt.so.6:_ZN2Fm8SidePane10modeByNameEPKc
libfm-qt.so.6:_ZN2Fm8SidePane10setHomeDirEPKc
libfm-qt.so.6:_ZN2Fm8SidePane11initDirTreeEv
libfm-qt.so.6:_ZN2Fm8SidePane11modeChangedENS0_4ModeE
libfm-qt.so.6:_ZN2Fm8SidePane11qt_metacallEN11QMetaObject4CallEiPPv
libfm-qt.so.6:_ZN2Fm8SidePane11qt_metacastEPKc
libfm-qt.so.6:_ZN2Fm8SidePane11setIconSizeE5QSize
libfm-qt.so.6:_ZN2Fm8SidePane13setShowHiddenEb
libfm-qt.so.6:_ZN2Fm8SidePane14chdirRequestedEiRKNS_8FilePathE
libfm-qt.so.6:_ZN2Fm8SidePane14hiddenPlaceSetERK7QStringb
libfm-qt.so.6:_ZN2Fm8SidePane14setCurrentPathENS_8FilePathE
libfm-qt.so.6:_ZN2Fm8SidePane15prepareFileMenuEPNS_8FileMenuE
libfm-qt.so.6:_ZN2Fm8SidePane19restoreHiddenPlacesERK4QSetI7QStringE
libfm-qt.so.6:_ZN2Fm8SidePane24createNewFolderRequestedERKNS_8FilePathE
libfm-qt.so.6:_ZN2Fm8SidePane26onComboCurrentIndexChangedEi
libfm-qt.so.6:_ZN2Fm8SidePane27openFolderInNewTabRequestedERKNS_8FilePathE
libfm-qt.so.6:_ZN2Fm8SidePane29openFolderInTerminalRequestedERKNS_8FilePathE
libfm-qt.so.6:_ZN2Fm8SidePane30openFolderInNewWindowRequestedERKNS_8FilePathE
libfm-qt.so.6:_ZN2Fm8SidePane7setModeENS0_4ModeE
libfm-qt.so.6:_ZN2Fm8SidePane8modeNameENS0_4ModeE
libfm-qt.so.6:_ZN2Fm8SidePaneC1EP7QWidget
libfm-qt.so.6:_ZN2Fm8SidePaneC2EP7QWidget
libfm-qt.so.6:_ZN2Fm8SidePaneD0Ev
libfm-qt.so.6:_ZN2Fm8SidePaneD1Ev
libfm-qt.so.6:_ZN2Fm8SidePaneD2Ev
libfm-qt.so.6:_ZN2Fm8TrashJob11qt_metacallEN11QMetaObject4CallEiPPv
libfm-qt.so.6:_ZN2Fm8TrashJob11qt_metacastEPKc
libfm-qt.so.6:_ZN2Fm8TrashJob4execEv
libfm-qt.so.6:_ZN2Fm8TrashJobC1ESt6vectorINS_8FilePathESaIS2_EE
libfm-qt.so.6:_ZN2Fm8TrashJobC2ESt6vectorINS_8FilePathESaIS2_EE
libfm-qt.so.6:_ZN2Fm9Bookmarks11qt_metacallEN11QMetaObject4CallEiPPv
libfm-qt.so.6:_ZN2Fm9Bookmarks11qt_metacastEPKc
libfm-qt.so.6:_ZN2Fm9Bookmarks13onFileChangedEP13_GFileMonitorP6_GFileS4_17GFileMonitorEvent
libfm-qt.so.6:_ZN2Fm9Bookmarks14globalInstanceEv
libfm-qt.so.6:_ZN2Fm9Bookmarks4loadEv
libfm-qt.so.6:_ZN2Fm9Bookmarks4saveEv
libfm-qt.so.6:_ZN2Fm9Bookmarks6insertERKNS_8FilePathERK7QStringi
libfm-qt.so.6:_ZN2Fm9Bookmarks6removeERKSt10shared_ptrIKNS_12BookmarkItemEE
libfm-qt.so.6:_ZN2Fm9Bookmarks6renameERKSt10shared_ptrIKNS_12BookmarkItemEE7QString
libfm-qt.so.6:_ZN2Fm9Bookmarks7changedEv
libfm-qt.so.6:_ZN2Fm9Bookmarks7reorderERKSt10shared_ptrIKNS_12BookmarkItemEEi
libfm-qt.so.6:_ZN2Fm9Bookmarks9queueSaveEv
libfm-qt.so.6:_ZN2Fm9BookmarksC1EP7QObject
libfm-qt.so.6:_ZN2Fm9BookmarksC2EP7QObject
libfm-qt.so.6:_ZN2Fm9BookmarksD0Ev
libfm-qt.so.6:_ZN2Fm9BookmarksD1Ev
libfm-qt.so.6:_ZN2Fm9BookmarksD2Ev
libfm-qt.so.6:_ZN2Fm9DeleteJob10deleteFileERKNS_8FilePathENS_10GObjectPtrI10_GFileInfoEE
libfm-qt.so.6:_ZN2Fm9DeleteJob11qt_metacallEN11QMetaObject4CallEiPPv
libfm-qt.so.6:_ZN2Fm9DeleteJob11qt_metacastEPKc
libfm-qt.so.6:_ZN2Fm9DeleteJob16deleteDirContentERKNS_8FilePathENS_10GObjectPtrI10_GFileInfoEE
libfm-qt.so.6:_ZN2Fm9DeleteJob4execEv
libfm-qt.so.6:_ZN2Fm9DeleteJobC1EOSt6vectorINS_8FilePathESaIS2_EE
libfm-qt.so.6:_ZN2Fm9DeleteJobC1ERKSt6vectorINS_8FilePathESaIS2_EE
libfm-qt.so.6:_ZN2Fm9DeleteJobC2EOSt6vectorINS_8FilePathESaIS2_EE
libfm-qt.so.6:_ZN2Fm9DeleteJobC2ERKSt6vectorINS_8FilePathESaIS2_EE
libfm-qt.so.6:_ZN2Fm9DeleteJobD0Ev
libfm-qt.so.6:_ZN2Fm9DeleteJobD1Ev
libfm-qt.so.6:_ZN2Fm9DeleteJobD2Ev
libfm-qt.so.6:_ZN2Fm9Templates11itemChangedERKSt10shared_ptrIKNS_12TemplateItemEES6_
libfm-qt.so.6:_ZN2Fm9Templates11itemRemovedERKSt10shared_ptrIKNS_12TemplateItemEE
libfm-qt.so.6:_ZN2Fm9Templates11qt_metacallEN11QMetaObject4CallEiPPv
libfm-qt.so.6:_ZN2Fm9Templates11qt_metacastEPKc
libfm-qt.so.6:_ZN2Fm9Templates12onFilesAddedERNS_12FileInfoListE
libfm-qt.so.6:_ZN2Fm9Templates14addTemplateDirEPKc
libfm-qt.so.6:_ZN2Fm9Templates14globalInstanceEv
libfm-qt.so.6:_ZN2Fm9Templates14onFilesChangedERSt6vectorISt4pairISt10shared_ptrIKNS_8FileInfoEES6_ESaIS7_EE
libfm-qt.so.6:_ZN2Fm9Templates14onFilesRemovedERNS_12FileInfoListE
libfm-qt.so.6:_ZN2Fm9Templates20onTemplateDirRemovedEv
libfm-qt.so.6:_ZN2Fm9Templates9itemAddedERKSt10shared_ptrIKNS_12TemplateItemEE
libfm-qt.so.6:_ZN2Fm9TemplatesC1Ev
libfm-qt.so.6:_ZN2Fm9TemplatesC2Ev
libfm-qt.so.6:_ZN2Fm9gidToNameEj
libfm-qt.so.6:_ZN2Fm9uidToNameEj
libfm-qt.so.6:_ZN2Fm9uriExistsEPKc
libfm-qt.so.6:_ZNK2Fm10DirListJob10metaObjectEv
libfm-qt.so.6:_ZNK2Fm10FileDialog10metaObjectEv
libfm-qt.so.6:_ZNK2Fm10FileDialog10parseNamesEv
libfm-qt.so.6:_ZNK2Fm10FileDialog11splitterPosEv
libfm-qt.so.6:_ZNK2Fm10FileDialog16FileDialogFilter16filterAcceptsRowEPKNS_16ProxyFolderModelERKSt10shared_ptrIKNS_8FileInfoEE
libfm-qt.so.6:_ZNK2Fm10FileDialog16firstSelectedDirEv
libfm-qt.so.6:_ZNK2Fm10FileDialog22selectedMimeTypeFilterEv
libfm-qt.so.6:_ZNK2Fm10FileDialog9directoryEv
libfm-qt.so.6:_ZNK2Fm10FileDialog9labelTextEN11QFileDialog11DialogLabelE
libfm-qt.so.6:_ZNK2Fm10FolderMenu10metaObjectEv
libfm-qt.so.6:_ZNK2Fm10FolderView10metaObjectEv
libfm-qt.so.6:_ZNK2Fm10FolderView12hasSelectionEv
libfm-qt.so.6:_ZNK2Fm10FolderView12selectedRowsEi
libfm-qt.so.6:_ZNK2Fm10FolderView13selectedFilesEv
libfm-qt.so.6:_ZNK2Fm10FolderView14selectionModelEv
libfm-qt.so.6:_ZNK2Fm10FolderView15selectedIndexesEv
libfm-qt.so.6:_ZNK2Fm10FolderView17selectedFilePathsEv
libfm-qt.so.6:_ZNK2Fm10FolderView19indexFromFolderPathERKNS_8FilePathE
libfm-qt.so.6:_ZNK2Fm10FolderView5modelEv
libfm-qt.so.6:_ZNK2Fm10FolderView8iconSizeENS0_8ViewModeE
libfm-qt.so.6:_ZNK2Fm10FolderView8viewModeEv
libfm-qt.so.6:_ZNK2Fm10FolderView9childViewEv
libfm-qt.so.6:_ZNK2Fm10FontButton10metaObjectEv
libfm-qt.so.6:_ZNK2Fm10PlacesView10metaObjectEv
libfm-qt.so.6:_ZNK2Fm11AppMenuView10metaObjectEv
libfm-qt.so.6:_ZNK2Fm11AppMenuView11selectedAppEv
libfm-qt.so.6:_ZNK2Fm11AppMenuView12selectedItemEv
libfm-qt.so.6:_ZNK2Fm11AppMenuView13isAppSelectedEv
libfm-qt.so.6:_ZNK2Fm11AppMenuView20selectedAppDesktopIdEv
libfm-qt.so.6:_ZNK2Fm11AppMenuView22selectedAppDesktopPathEv
libfm-qt.so.6:_ZNK2Fm11AppMenuView26selectedAppDesktopFilePathEv
libfm-qt.so.6:_ZNK2Fm11ColorButton10metaObjectEv
libfm-qt.so.6:_ZNK2Fm11DirTreeView10metaObjectEv
libfm-qt.so.6:_ZNK2Fm11FileInfoJob10metaObjectEv
libfm-qt.so.6:_ZNK2Fm11FileMonitor10metaObjectEv
libfm-qt.so.6:_ZNK2Fm11FolderModel10headerDataEiN2Qt11OrientationEi
libfm-qt.so.6:_ZNK2Fm11FolderModel10metaObjectEv
libfm-qt.so.6:_ZNK2Fm11FolderModel11columnCountERK11QModelIndex
libfm-qt.so.6:_ZNK2Fm11FolderModel13itemFromIndexERK11QModelIndex
libfm-qt.so.6:_ZNK2Fm11FolderModel17fileInfoFromIndexERK11QModelIndex
libfm-qt.so.6:_ZNK2Fm11FolderModel20supportedDropActionsEv
libfm-qt.so.6:_ZNK2Fm11FolderModel4dataERK11QModelIndexi
libfm-qt.so.6:_ZNK2Fm11FolderModel5flagsERK11QModelIndex
libfm-qt.so.6:_ZNK2Fm11FolderModel5indexEiiRK11QModelIndex
libfm-qt.so.6:_ZNK2Fm11FolderModel6parentERK11QModelIndex
libfm-qt.so.6:_ZNK2Fm11FolderModel8mimeDataERK5QListI11QModelIndexE
libfm-qt.so.6:_ZNK2Fm11FolderModel8rowCountERK11QModelIndex
libfm-qt.so.6:_ZNK2Fm11FolderModel9mimeTypesEv
libfm-qt.so.6:_ZNK2Fm11PlacesModel10metaObjectEv
libfm-qt.so.6:_ZNK2Fm11PlacesModel20supportedDropActionsEv
libfm-qt.so.6:_ZNK2Fm11PlacesModel4dataERK11QModelIndexi
libfm-qt.so.6:_ZNK2Fm11PlacesModel5flagsERK11QModelIndex
libfm-qt.so.6:_ZNK2Fm11PlacesModel8mimeDataERK5QListI11QModelIndexE
libfm-qt.so.6:_ZNK2Fm11PlacesModel9mimeTypesEv
libfm-qt.so.6:_ZNK2Fm11Thumbnailer13commandForUriEPKcS2_j
libfm-qt.so.6:_ZNK2Fm11Thumbnailer3runEPKcS2_i
libfm-qt.so.6:_ZNK2Fm12DirTreeModel10metaObjectEv
libfm-qt.so.6:_ZNK2Fm12DirTreeModel11columnCountERK11QModelIndex
libfm-qt.so.6:_ZNK2Fm12DirTreeModel11hasChildrenERK11QModelIndex
libfm-qt.so.6:_ZNK2Fm12DirTreeModel12itemFromPathERKNS_8FilePathE
libfm-qt.so.6:_ZNK2Fm12DirTreeModel13indexFromItemEPNS_16DirTreeModelItemE
libfm-qt.so.6:_ZNK2Fm12DirTreeModel13indexFromPathERKNS_8FilePathE
libfm-qt.so.6:_ZNK2Fm12DirTreeModel13itemFromIndexERK11QModelIndex
libfm-qt.so.6:_ZNK2Fm12DirTreeModel4dataERK11QModelIndexi
libfm-qt.so.6:_ZNK2Fm12DirTreeModel5flagsERK11QModelIndex
libfm-qt.so.6:_ZNK2Fm12DirTreeModel5indexEiiRK11QModelIndex
libfm-qt.so.6:_ZNK2Fm12DirTreeModel6parentERK11QModelIndex
libfm-qt.so.6:_ZNK2Fm12DirTreeModel8rowCountERK11QModelIndex
libfm-qt.so.6:_ZNK2Fm12FileInfoList10isSameTypeEv
libfm-qt.so.6:_ZNK2Fm12FileInfoList16isSameFilesystemEv
libfm-qt.so.6:_ZNK2Fm12FolderConfig8isOpenedEv
libfm-qt.so.6:_ZNK2Fm12RenameDialog10metaObjectEv
libfm-qt.so.6:_ZNK2Fm12TemplateItem8filePathEv
libfm-qt.so.6:_ZNK2Fm12ThumbnailJob10metaObjectEv
libfm-qt.so.6:_ZNK2Fm12ThumbnailJob19isThumbnailOutdatedERKSt10shared_ptrIKNS_8FileInfoEERK6QImage
libfm-qt.so.6:_ZNK2Fm12ThumbnailJob20isSupportedImageTypeERKSt10shared_ptrIKNS_8MimeTypeEE
libfm-qt.so.6:_ZNK2Fm12TotalSizeJob10metaObjectEv
libfm-qt.so.6:_ZNK2Fm13BrowseHistory10canForwardEv
libfm-qt.so.6:_ZNK2Fm13BrowseHistory11canBackwardEv
libfm-qt.so.6:_ZNK2Fm13CreateNewMenu10metaObjectEv
libfm-qt.so.6:_ZNK2Fm13FileOperation10metaObjectEv
libfm-qt.so.6:_ZNK2Fm13UserInfoCache10metaObjectEv
libfm-qt.so.6:_ZNK2Fm13VolumeManager10metaObjectEv
libfm-qt.so.6:_ZNK2Fm14MountOperation10metaObjectEv
libfm-qt.so.6:_ZNK2Fm15FilePropsDialog10metaObjectEv
libfm-qt.so.6:_ZNK2Fm15FileTransferJob10metaObjectEv
libfm-qt.so.6:_ZNK2Fm15FolderModelItem10ownerGroupEv
libfm-qt.so.6:_ZNK2Fm15FolderModelItem11displaySizeEv
libfm-qt.so.6:_ZNK2Fm15FolderModelItem12displayMtimeEv
libfm-qt.so.6:_ZNK2Fm15FolderModelItem5isCutEv
libfm-qt.so.6:_ZNK2Fm15FolderModelItem9ownerNameEv
libfm-qt.so.6:_ZNK2Fm15PlacesModelItem4dataEi
libfm-qt.so.6:_ZNK2Fm16AppChooserDialog10metaObjectEv
libfm-qt.so.6:_ZNK2Fm16AppChooserDialog12isSetDefaultEv
libfm-qt.so.6:_ZNK2Fm16DirTreeModelItem13childFromPathENS_8FilePathEb
libfm-qt.so.6:_ZNK2Fm16FileDialogHelper10metaObjectEv
libfm-qt.so.6:_ZNK2Fm16FileDialogHelper13selectedFilesEv
libfm-qt.so.6:_ZNK2Fm16FileDialogHelper14isSupportedUrlERK4QUrl
libfm-qt.so.6:_ZNK2Fm16FileDialogHelper18selectedNameFilterEv
libfm-qt.so.6:_ZNK2Fm16FileDialogHelper22selectedMimeTypeFilterEv
libfm-qt.so.6:_ZNK2Fm16FileDialogHelper25defaultNameFilterDisablesEv
libfm-qt.so.6:_ZNK2Fm16FileDialogHelper9directoryEv
libfm-qt.so.6:_ZNK2Fm16FileOperationJob10metaObjectEv
libfm-qt.so.6:_ZNK2Fm16FileOperationJob11currentFileEv
libfm-qt.so.6:_ZNK2Fm16FileOperationJob11totalAmountERmS1_
libfm-qt.so.6:_ZNK2Fm16FileOperationJob14finishedAmountERmS1_
libfm-qt.so.6:_ZNK2Fm16FileOperationJob19currentFileProgressERNS_8FilePathERmS3_
libfm-qt.so.6:_ZNK2Fm16FileOperationJob8progressEv
libfm-qt.so.6:_ZNK2Fm16FileSearchDialog10nameRegexpEv
libfm-qt.so.6:_ZNK2Fm16FileSearchDialog13contentRegexpEv
libfm-qt.so.6:_ZNK2Fm16FileSearchDialog13searchhHiddenEv
libfm-qt.so.6:_ZNK2Fm16FileSearchDialog19nameCaseInsensitiveEv
libfm-qt.so.6:_ZNK2Fm16FileSearchDialog22contentCaseInsensitiveEv
libfm-qt.so.6:_ZNK2Fm16FileSearchDialog9recursiveEv
libfm-qt.so.6:_ZNK2Fm16PlacesProxyModel10metaObjectEv
libfm-qt.so.6:_ZNK2Fm16PlacesProxyModel16filterAcceptsRowEiRK11QModelIndex
libfm-qt.so.6:_ZNK2Fm16ProxyFolderModel10metaObjectEv
libfm-qt.so.6:_ZNK2Fm16ProxyFolderModel13indexFromPathERKNS_8FilePathE
libfm-qt.so.6:_ZNK2Fm16ProxyFolderModel16fileInfoFromPathERKNS_8FilePathE
libfm-qt.so.6:_ZNK2Fm16ProxyFolderModel16filterAcceptsRowEiRK11QModelIndex
libfm-qt.so.6:_ZNK2Fm16ProxyFolderModel17fileInfoFromIndexERK11QModelIndex
libfm-qt.so.6:_ZNK2Fm16ProxyFolderModel4dataERK11QModelIndexi
libfm-qt.so.6:_ZNK2Fm16ProxyFolderModel8lessThanERK11QModelIndexS3_
libfm-qt.so.6:_ZNK2Fm17CachedFolderModel10metaObjectEv
libfm-qt.so.6:_ZNK2Fm17FileChangeAttrJob10metaObjectEv
libfm-qt.so.6:_ZNK2Fm17FileSystemInfoJob10metaObjectEv
libfm-qt.so.6:_ZNK2Fm18AppChooserComboBox10metaObjectEv
libfm-qt.so.6:_ZNK2Fm18AppChooserComboBox11selectedAppEv
libfm-qt.so.6:_ZNK2Fm18AppChooserComboBox9isChangedEv
libfm-qt.so.6:_ZNK2Fm18FolderItemDelegate10metaObjectEv
libfm-qt.so.6:_ZNK2Fm18FolderItemDelegate12createEditorEP7QWidgetRK20QStyleOptionViewItemRK11QModelIndex
libfm-qt.so.6:_ZNK2Fm18FolderItemDelegate13setEditorDataEP7QWidgetRK11QModelIndex
libfm-qt.so.6:_ZNK2Fm18FolderItemDelegate16iconViewTextSizeERK11QModelIndex
libfm-qt.so.6:_ZNK2Fm18FolderItemDelegate20updateEditorGeometryEP7QWidgetRK20QStyleOptionViewItemRK11QModelIndex
libfm-qt.so.6:_ZNK2Fm18FolderItemDelegate5paintEP8QPainterRK20QStyleOptionViewItemRK11QModelIndex
libfm-qt.so.6:_ZNK2Fm18FolderItemDelegate8drawTextEP8QPainterR20QStyleOptionViewItemR6QRectF
libfm-qt.so.6:_ZNK2Fm18FolderItemDelegate8sizeHintERK20QStyleOptionViewItemRK11QModelIndex
libfm-qt.so.6:_ZNK2Fm19EditBookmarksDialog10metaObjectEv
libfm-qt.so.6:_ZNK2Fm19FileOperationDialog10metaObjectEv
libfm-qt.so.6:_ZNK2Fm3Job10metaObjectEv
libfm-qt.so.6:_ZNK2Fm6Folder10fileByNameEPKc
libfm-qt.so.6:_ZNK2Fm6Folder10metaObjectEv
libfm-qt.so.6:_ZNK2Fm6Folder13isIncrementalEv
libfm-qt.so.6:_ZNK2Fm6Folder17getFilesystemInfoEPmS1_
libfm-qt.so.6:_ZNK2Fm6Folder4infoEv
libfm-qt.so.6:_ZNK2Fm6Folder4pathEv
libfm-qt.so.6:_ZNK2Fm6Folder5filesEv
libfm-qt.so.6:_ZNK2Fm6Folder7isEmptyEv
libfm-qt.so.6:_ZNK2Fm6Folder7isValidEv
libfm-qt.so.6:_ZNK2Fm6Folder8isLoadedEv
libfm-qt.so.6:_ZNK2Fm7PathBar10metaObjectEv
libfm-qt.so.6:_ZNK2Fm8FileInfo11isTrustableEv
libfm-qt.so.6:_ZNK2Fm8FileInfo12canThumbnailEv
libfm-qt.so.6:_ZNK2Fm8FileInfo12setTrustableEb
libfm-qt.so.6:_ZNK2Fm8FileInfo16isExecutableTypeEv
libfm-qt.so.6:_ZNK2Fm8FileMenu10metaObjectEv
libfm-qt.so.6:_ZNK2Fm8IconInfo13internalQiconEv
libfm-qt.so.6:_ZNK2Fm8IconInfo5qiconERKb
libfm-qt.so.6:_ZNK2Fm8IconInfo7emblemsEv
libfm-qt.so.6:_ZNK2Fm8PathEdit10metaObjectEv
libfm-qt.so.6:_ZNK2Fm8SidePane10metaObjectEv
libfm-qt.so.6:_ZNK2Fm8TrashJob10metaObjectEv
libfm-qt.so.6:_ZNK2Fm9Bookmarks10metaObjectEv
libfm-qt.so.6:_ZNK2Fm9DeleteJob10metaObjectEv
libfm-qt.so.6:_ZNK2Fm9Templates10metaObjectEv
libfm-qt.so.6:_ZThn16_N2Fm10FileDialogD0Ev
libfm-qt.so.6:_ZThn16_N2Fm10FileDialogD1Ev
libfm-qt.so.6:_ZThn16_N2Fm10FolderMenuD0Ev
libfm-qt.so.6:_ZThn16_N2Fm10FolderMenuD1Ev
libfm-qt.so.6:_ZThn16_N2Fm10FolderViewD0Ev
libfm-qt.so.6:_ZThn16_N2Fm10FolderViewD1Ev
libfm-qt.so.6:_ZThn16_N2Fm10FontButtonD0Ev
libfm-qt.so.6:_ZThn16_N2Fm10FontButtonD1Ev
libfm-qt.so.6:_ZThn16_N2Fm10PlacesViewD0Ev
libfm-qt.so.6:_ZThn16_N2Fm10PlacesViewD1Ev
libfm-qt.so.6:_ZThn16_N2Fm11AppMenuViewD0Ev
libfm-qt.so.6:_ZThn16_N2Fm11AppMenuViewD1Ev
libfm-qt.so.6:_ZThn16_N2Fm11ColorButtonD0Ev
libfm-qt.so.6:_ZThn16_N2Fm11ColorButtonD1Ev
libfm-qt.so.6:_ZThn16_N2Fm11DirTreeViewD0Ev
libfm-qt.so.6:_ZThn16_N2Fm11DirTreeViewD1Ev
libfm-qt.so.6:_ZThn16_N2Fm12RenameDialogD0Ev
libfm-qt.so.6:_ZThn16_N2Fm12RenameDialogD1Ev
libfm-qt.so.6:_ZThn16_N2Fm12ThumbnailJobD0Ev
libfm-qt.so.6:_ZThn16_N2Fm12ThumbnailJobD1Ev
libfm-qt.so.6:_ZThn16_N2Fm13CreateNewMenuD0Ev
libfm-qt.so.6:_ZThn16_N2Fm13CreateNewMenuD1Ev
libfm-qt.so.6:_ZThn16_N2Fm15FilePropsDialogD0Ev
libfm-qt.so.6:_ZThn16_N2Fm15FilePropsDialogD1Ev
libfm-qt.so.6:_ZThn16_N2Fm16AppChooserDialogD0Ev
libfm-qt.so.6:_ZThn16_N2Fm16AppChooserDialogD1Ev
libfm-qt.so.6:_ZThn16_N2Fm16FileSearchDialogD0Ev
libfm-qt.so.6:_ZThn16_N2Fm16FileSearchDialogD1Ev
libfm-qt.so.6:_ZThn16_N2Fm18AppChooserComboBoxD0Ev
libfm-qt.so.6:_ZThn16_N2Fm18AppChooserComboBoxD1Ev
libfm-qt.so.6:_ZThn16_N2Fm19EditBookmarksDialogD0Ev
libfm-qt.so.6:_ZThn16_N2Fm19EditBookmarksDialogD1Ev
libfm-qt.so.6:_ZThn16_N2Fm19FileOperationDialogD0Ev
libfm-qt.so.6:_ZThn16_N2Fm19FileOperationDialogD1Ev
libfm-qt.so.6:_ZThn16_N2Fm3Job3runEv
libfm-qt.so.6:_ZThn16_N2Fm3JobD0Ev
libfm-qt.so.6:_ZThn16_N2Fm3JobD1Ev
libfm-qt.so.6:_ZThn16_N2Fm8FileMenuD0Ev
libfm-qt.so.6:_ZThn16_N2Fm8FileMenuD1Ev
libfm-qt.so.6:_ZThn16_N2Fm8PathEditD0Ev
libfm-qt.so.6:_ZThn16_N2Fm8PathEditD1Ev
libfm-qt.so.6:_ZThn16_N2Fm8SidePaneD0Ev
libfm-qt.so.6:_ZThn16_N2Fm8SidePaneD1Ev
libfm-qt.so.6:_ZThn16_N2Fm9DeleteJobD0Ev
libfm-qt.so.6:_ZThn16_N2Fm9DeleteJobD1Ev
libfm-qt.so.6:createFileDialogHelper
